	.file	"osm.cpp"
# GNU C++14 (Ubuntu 7.4.0-1ubuntu1~18.04.1) version 7.4.0 (x86_64-linux-gnu)
#	compiled by GNU C version 7.4.0, GMP version 6.1.2, MPFR version 4.0.1, MPC version 1.1.0, isl version isl-0.19-GMP

# GGC heuristics: --param ggc-min-expand=100 --param ggc-min-heapsize=131072
# options passed:  -imultiarch x86_64-linux-gnu -D_GNU_SOURCE osm.cpp
# -mtune=generic -march=x86-64 -auxbase-strip osm.s -g -fverbose-asm
# -fstack-protector-strong -Wformat -Wformat-security
# options enabled:  -fPIC -fPIE -faggressive-loop-optimizations
# -fasynchronous-unwind-tables -fauto-inc-dec -fchkp-check-incomplete-type
# -fchkp-check-read -fchkp-check-write -fchkp-instrument-calls
# -fchkp-narrow-bounds -fchkp-optimize -fchkp-store-bounds
# -fchkp-use-static-bounds -fchkp-use-static-const-bounds
# -fchkp-use-wrappers -fcommon -fdelete-null-pointer-checks
# -fdwarf2-cfi-asm -fearly-inlining -feliminate-unused-debug-types
# -fexceptions -ffp-int-builtin-inexact -ffunction-cse -fgcse-lm
# -fgnu-runtime -fgnu-unique -fident -finline-atomics -fira-hoist-pressure
# -fira-share-save-slots -fira-share-spill-slots -fivopts
# -fkeep-static-consts -fleading-underscore -flifetime-dse
# -flto-odr-type-merging -fmath-errno -fmerge-debug-strings -fpeephole
# -fplt -fprefetch-loop-arrays -freg-struct-return
# -fsched-critical-path-heuristic -fsched-dep-count-heuristic
# -fsched-group-heuristic -fsched-interblock -fsched-last-insn-heuristic
# -fsched-rank-heuristic -fsched-spec -fsched-spec-insn-heuristic
# -fsched-stalled-insns-dep -fschedule-fusion -fsemantic-interposition
# -fshow-column -fshrink-wrap-separate -fsigned-zeros
# -fsplit-ivs-in-unroller -fssa-backprop -fstack-protector-strong
# -fstdarg-opt -fstrict-volatile-bitfields -fsync-libcalls -ftrapping-math
# -ftree-cselim -ftree-forwprop -ftree-loop-if-convert -ftree-loop-im
# -ftree-loop-ivcanon -ftree-loop-optimize -ftree-parallelize-loops=
# -ftree-phiprop -ftree-reassoc -ftree-scev-cprop -funit-at-a-time
# -funwind-tables -fverbose-asm -fzero-initialized-in-bss
# -m128bit-long-double -m64 -m80387 -malign-stringops
# -mavx256-split-unaligned-load -mavx256-split-unaligned-store
# -mfancy-math-387 -mfp-ret-in-387 -mfxsr -mglibc -mieee-fp
# -mlong-double-80 -mmmx -mno-sse4 -mpush-args -mred-zone -msse -msse2
# -mstv -mtls-direct-seg-refs -mvzeroupper

	.text
.Ltext0:
	.section	.rodata
	.type	_ZStL19piecewise_construct, @object
	.size	_ZStL19piecewise_construct, 1
_ZStL19piecewise_construct:
	.zero	1
	.local	_ZStL8__ioinit
	.comm	_ZStL8__ioinit,1,1
	.data
	.align 4
	.type	_ZL4TRAP, @object
	.size	_ZL4TRAP, 4
_ZL4TRAP:
	.long	1
	.align 4
	.type	_ZL8FUNCTION, @object
	.size	_ZL8FUNCTION, 4
_ZL8FUNCTION:
	.long	2
	.align 4
	.type	_ZL8ADDITION, @object
	.size	_ZL8ADDITION, 4
_ZL8ADDITION:
	.long	3
	.align 4
	.type	_ZL8testNum1, @object
	.size	_ZL8testNum1, 4
_ZL8testNum1:
	.long	12
	.align 4
	.type	_ZL8testNum2, @object
	.size	_ZL8testNum2, 4
_ZL8testNum2:
	.long	2
	.local	_ZL8testNum3
	.comm	_ZL8testNum3,4,4
	.text
	.type	_ZL9emptyFuncv, @function
_ZL9emptyFuncv:
.LFB1493:
	.file 1 "osm.cpp"
	.loc 1 18 0
	.cfi_startproc
	pushq	%rbp	#
	.cfi_def_cfa_offset 16
	.cfi_offset 6, -16
	movq	%rsp, %rbp	#,
	.cfi_def_cfa_register 6
# osm.cpp:19: }
	.loc 1 19 0
	nop
	popq	%rbp	#
	.cfi_def_cfa 7, 8
	ret
	.cfi_endproc
.LFE1493:
	.size	_ZL9emptyFuncv, .-_ZL9emptyFuncv
	.type	_ZL19additionInstructionv, @function
_ZL19additionInstructionv:
.LFB1494:
	.loc 1 25 0
	.cfi_startproc
	pushq	%rbp	#
	.cfi_def_cfa_offset 16
	.cfi_offset 6, -16
	movq	%rsp, %rbp	#,
	.cfi_def_cfa_register 6
# osm.cpp:26:     testNum3 = testNum1 + testNum2;
	.loc 1 26 0
	movl	_ZL8testNum1(%rip), %edx	# testNum1, testNum1.0_1
	movl	_ZL8testNum2(%rip), %eax	# testNum2, testNum2.1_2
	addl	%edx, %eax	# testNum1.0_1, _3
	movl	%eax, _ZL8testNum3(%rip)	# _3, testNum3
# osm.cpp:27: }
	.loc 1 27 0
	nop
	popq	%rbp	#
	.cfi_def_cfa 7, 8
	ret
	.cfi_endproc
.LFE1494:
	.size	_ZL19additionInstructionv, .-_ZL19additionInstructionv
	.type	_ZL19timeMeasurementTestij, @function
_ZL19timeMeasurementTestij:
.LFB1495:
	.loc 1 37 0
	.cfi_startproc
	pushq	%rbp	#
	.cfi_def_cfa_offset 16
	.cfi_offset 6, -16
	movq	%rsp, %rbp	#,
	.cfi_def_cfa_register 6
	pushq	%rbx	#
	subq	$104, %rsp	#,
	.cfi_offset 3, -24
	movl	%edi, -100(%rbp)	# testNum, testNum
	movl	%esi, -104(%rbp)	# iterations, iterations
# osm.cpp:37: {
	.loc 1 37 0
	movq	%fs:40, %rax	#, tmp161
	movq	%rax, -24(%rbp)	# tmp161, D.41000
	xorl	%eax, %eax	# tmp161
# osm.cpp:38:     if (iterations == 0) // Illegal number of iterations
	.loc 1 38 0
	cmpl	$0, -104(%rbp)	#, iterations
	jne	.L4	#,
# osm.cpp:40:         return ERROR_CODE
	.loc 1 40 0
	movsd	.LC0(%rip), %xmm0	#, _26
	jmp	.L3	#
.L4:
# osm.cpp:43:     unsigned int realIterations = iterations / UNROLLING_COEFFICIENT;
	.loc 1 43 0
	movl	-104(%rbp), %eax	# iterations, tmp113
	movl	$-1431655765, %edx	#, tmp115
	mull	%edx	# tmp115
	movl	%edx, %eax	# tmp114, tmp114
	shrl	$2, %eax	#, tmp114
	movl	%eax, -72(%rbp)	# tmp112, realIterations
# osm.cpp:44:     unsigned int remainder = (realIterations * UNROLLING_COEFFICIENT) < iterations  ? 1 : 0;
	.loc 1 44 0
	movl	-72(%rbp), %edx	# realIterations, tmp116
	movl	%edx, %eax	# tmp116, tmp117
	addl	%eax, %eax	# tmp117
	addl	%edx, %eax	# tmp116, tmp117
	addl	%eax, %eax	# tmp118
	cmpl	%eax, -104(%rbp)	# _1, iterations
	jbe	.L6	#,
# osm.cpp:44:     unsigned int remainder = (realIterations * UNROLLING_COEFFICIENT) < iterations  ? 1 : 0;
	.loc 1 44 0 is_stmt 0 discriminator 1
	movl	$1, %eax	#, iftmp.2_27
	jmp	.L7	#
.L6:
# osm.cpp:44:     unsigned int remainder = (realIterations * UNROLLING_COEFFICIENT) < iterations  ? 1 : 0;
	.loc 1 44 0 discriminator 2
	movl	$0, %eax	#, iftmp.2_27
.L7:
# osm.cpp:44:     unsigned int remainder = (realIterations * UNROLLING_COEFFICIENT) < iterations  ? 1 : 0;
	.loc 1 44 0 discriminator 4
	movl	%eax, -68(%rbp)	# iftmp.2_27, remainder
# osm.cpp:51:     struct timeval before{}, after{};
	.loc 1 51 0 is_stmt 1 discriminator 4
	movq	$0, -64(%rbp)	#, before
	movq	$0, -56(%rbp)	#, before
	movq	$0, -48(%rbp)	#, after
	movq	$0, -40(%rbp)	#, after
.LBB2:
# osm.cpp:53:     if (testNum == TRAP)
	.loc 1 53 0 discriminator 4
	movl	_ZL4TRAP(%rip), %eax	# TRAP, TRAP.3_2
	cmpl	%eax, -100(%rbp)	# TRAP.3_2, testNum
	jne	.L8	#,
.LBB3:
# osm.cpp:55:         gettimeofday(&before, nullptr);
	.loc 1 55 0
	leaq	-64(%rbp), %rax	#, tmp119
	movl	$0, %esi	#,
	movq	%rax, %rdi	# tmp119,
	call	gettimeofday@PLT	#
.LBB4:
# osm.cpp:56:         for(unsigned int i = 0; i < realIterations + remainder; i += 10)
	.loc 1 56 0
	movl	$0, -84(%rbp)	#, i
.L10:
# osm.cpp:56:         for(unsigned int i = 0; i < realIterations + remainder; i += 10)
	.loc 1 56 0 is_stmt 0 discriminator 3
	movl	-72(%rbp), %edx	# realIterations, tmp120
	movl	-68(%rbp), %eax	# remainder, tmp121
	addl	%edx, %eax	# tmp120, _3
	cmpl	%eax, -84(%rbp)	# _3, i
	jnb	.L9	#,
# osm.cpp:58:             OSM_NULLSYSCALL;
	.loc 1 58 0 is_stmt 1 discriminator 2
	movl	$-1, %eax	#, tmp122
	movl	$0, %esi	#, tmp123
	movl	$0, %ecx	#, tmp124
	movl	$0, %edx	#, tmp125
	movl	%esi, %ebx	# tmp123, tmp123
#APP
# 58 "osm.cpp" 1
	int $0x80 
# 0 "" 2
# osm.cpp:59:             OSM_NULLSYSCALL;
	.loc 1 59 0 discriminator 2
#NO_APP
	movl	$-1, %eax	#, tmp126
	movl	$0, %esi	#, tmp127
	movl	$0, %ecx	#, tmp128
	movl	$0, %edx	#, tmp129
	movl	%esi, %ebx	# tmp127, tmp127
#APP
# 59 "osm.cpp" 1
	int $0x80 
# 0 "" 2
# osm.cpp:60:             OSM_NULLSYSCALL;
	.loc 1 60 0 discriminator 2
#NO_APP
	movl	$-1, %eax	#, tmp130
	movl	$0, %esi	#, tmp131
	movl	$0, %ecx	#, tmp132
	movl	$0, %edx	#, tmp133
	movl	%esi, %ebx	# tmp131, tmp131
#APP
# 60 "osm.cpp" 1
	int $0x80 
# 0 "" 2
# osm.cpp:61:             OSM_NULLSYSCALL;
	.loc 1 61 0 discriminator 2
#NO_APP
	movl	$-1, %eax	#, tmp134
	movl	$0, %esi	#, tmp135
	movl	$0, %ecx	#, tmp136
	movl	$0, %edx	#, tmp137
	movl	%esi, %ebx	# tmp135, tmp135
#APP
# 61 "osm.cpp" 1
	int $0x80 
# 0 "" 2
# osm.cpp:62:             OSM_NULLSYSCALL;
	.loc 1 62 0 discriminator 2
#NO_APP
	movl	$-1, %eax	#, tmp138
	movl	$0, %esi	#, tmp139
	movl	$0, %ecx	#, tmp140
	movl	$0, %edx	#, tmp141
	movl	%esi, %ebx	# tmp139, tmp139
#APP
# 62 "osm.cpp" 1
	int $0x80 
# 0 "" 2
# osm.cpp:63:             OSM_NULLSYSCALL;
	.loc 1 63 0 discriminator 2
#NO_APP
	movl	$-1, %eax	#, tmp142
	movl	$0, %esi	#, tmp143
	movl	$0, %ecx	#, tmp144
	movl	$0, %edx	#, tmp145
	movl	%esi, %ebx	# tmp143, tmp143
#APP
# 63 "osm.cpp" 1
	int $0x80 
# 0 "" 2
# osm.cpp:56:         for(unsigned int i = 0; i < realIterations + remainder; i += 10)
	.loc 1 56 0 discriminator 2
#NO_APP
	addl	$10, -84(%rbp)	#, i
	jmp	.L10	#
.L9:
.LBE4:
# osm.cpp:65:         gettimeofday(&after, nullptr);
	.loc 1 65 0
	leaq	-48(%rbp), %rax	#, tmp146
	movl	$0, %esi	#,
	movq	%rax, %rdi	# tmp146,
	call	gettimeofday@PLT	#
# osm.cpp:67:         return (after.tv_usec - before.tv_usec) / iterations;
	.loc 1 67 0
	movq	-40(%rbp), %rdx	# after.tv_usec, _4
	movq	-56(%rbp), %rax	# before.tv_usec, _5
	subq	%rax, %rdx	# _5, _4
	movq	%rdx, %rax	# _4, _6
	movl	-104(%rbp), %edi	# iterations, _7
	cqto
	idivq	%rdi	# _7
	cvtsi2sdq	%rax, %xmm0	# _8, _26
	jmp	.L3	#
.L8:
.LBE3:
.LBE2:
.LBB5:
# osm.cpp:70:     if (testNum == FUNCTION)
	.loc 1 70 0
	movl	_ZL8FUNCTION(%rip), %eax	# FUNCTION, FUNCTION.4_9
	cmpl	%eax, -100(%rbp)	# FUNCTION.4_9, testNum
	jne	.L11	#,
.LBB6:
# osm.cpp:72:         gettimeofday(&before, nullptr);
	.loc 1 72 0
	leaq	-64(%rbp), %rax	#, tmp149
	movl	$0, %esi	#,
	movq	%rax, %rdi	# tmp149,
	call	gettimeofday@PLT	#
.LBB7:
# osm.cpp:73:         for(unsigned int i = 0; i < realIterations + remainder; i += 10)
	.loc 1 73 0
	movl	$0, -80(%rbp)	#, i
.L13:
# osm.cpp:73:         for(unsigned int i = 0; i < realIterations + remainder; i += 10)
	.loc 1 73 0 is_stmt 0 discriminator 3
	movl	-72(%rbp), %edx	# realIterations, tmp150
	movl	-68(%rbp), %eax	# remainder, tmp151
	addl	%edx, %eax	# tmp150, _10
	cmpl	%eax, -80(%rbp)	# _10, i
	jnb	.L12	#,
# osm.cpp:75:             emptyFunc();
	.loc 1 75 0 is_stmt 1 discriminator 2
	call	_ZL9emptyFuncv	#
# osm.cpp:76:             emptyFunc();
	.loc 1 76 0 discriminator 2
	call	_ZL9emptyFuncv	#
# osm.cpp:77:             emptyFunc();
	.loc 1 77 0 discriminator 2
	call	_ZL9emptyFuncv	#
# osm.cpp:78:             emptyFunc();
	.loc 1 78 0 discriminator 2
	call	_ZL9emptyFuncv	#
# osm.cpp:79:             emptyFunc();
	.loc 1 79 0 discriminator 2
	call	_ZL9emptyFuncv	#
# osm.cpp:80:             emptyFunc();
	.loc 1 80 0 discriminator 2
	call	_ZL9emptyFuncv	#
# osm.cpp:73:         for(unsigned int i = 0; i < realIterations + remainder; i += 10)
	.loc 1 73 0 discriminator 2
	addl	$10, -80(%rbp)	#, i
	jmp	.L13	#
.L12:
.LBE7:
# osm.cpp:82:         gettimeofday(&after, nullptr);
	.loc 1 82 0
	leaq	-48(%rbp), %rax	#, tmp152
	movl	$0, %esi	#,
	movq	%rax, %rdi	# tmp152,
	call	gettimeofday@PLT	#
# osm.cpp:84:         return (after.tv_usec - before.tv_usec) / iterations;
	.loc 1 84 0
	movq	-40(%rbp), %rdx	# after.tv_usec, _11
	movq	-56(%rbp), %rax	# before.tv_usec, _12
	subq	%rax, %rdx	# _12, _11
	movq	%rdx, %rax	# _11, _13
	movl	-104(%rbp), %edi	# iterations, _14
	cqto
	idivq	%rdi	# _14
	cvtsi2sdq	%rax, %xmm0	# _15, _26
	jmp	.L3	#
.L11:
.LBE6:
.LBE5:
.LBB8:
# osm.cpp:87:     if (testNum == ADDITION)
	.loc 1 87 0
	movl	_ZL8ADDITION(%rip), %eax	# ADDITION, ADDITION.5_16
	cmpl	%eax, -100(%rbp)	# ADDITION.5_16, testNum
	jne	.L14	#,
.LBB9:
.LBB10:
# osm.cpp:89:         for(unsigned int i = 0; i < realIterations + remainder; i += 10)
	.loc 1 89 0
	movl	$0, -76(%rbp)	#, i
.L16:
# osm.cpp:89:         for(unsigned int i = 0; i < realIterations + remainder; i += 10)
	.loc 1 89 0 is_stmt 0 discriminator 3
	movl	-72(%rbp), %edx	# realIterations, tmp155
	movl	-68(%rbp), %eax	# remainder, tmp156
	addl	%edx, %eax	# tmp155, _17
	cmpl	%eax, -76(%rbp)	# _17, i
	jnb	.L15	#,
# osm.cpp:91:             additionInstruction();
	.loc 1 91 0 is_stmt 1 discriminator 2
	call	_ZL19additionInstructionv	#
# osm.cpp:92:             additionInstruction();
	.loc 1 92 0 discriminator 2
	call	_ZL19additionInstructionv	#
# osm.cpp:93:             additionInstruction();
	.loc 1 93 0 discriminator 2
	call	_ZL19additionInstructionv	#
# osm.cpp:94:             additionInstruction();
	.loc 1 94 0 discriminator 2
	call	_ZL19additionInstructionv	#
# osm.cpp:95:             additionInstruction();
	.loc 1 95 0 discriminator 2
	call	_ZL19additionInstructionv	#
# osm.cpp:96:             additionInstruction();
	.loc 1 96 0 discriminator 2
	call	_ZL19additionInstructionv	#
# osm.cpp:89:         for(unsigned int i = 0; i < realIterations + remainder; i += 10)
	.loc 1 89 0 discriminator 2
	addl	$10, -76(%rbp)	#, i
	jmp	.L16	#
.L15:
.LBE10:
# osm.cpp:98:         gettimeofday(&after, nullptr);
	.loc 1 98 0
	leaq	-48(%rbp), %rax	#, tmp157
	movl	$0, %esi	#,
	movq	%rax, %rdi	# tmp157,
	call	gettimeofday@PLT	#
# osm.cpp:100:         return (after.tv_usec - before.tv_usec) / iterations;
	.loc 1 100 0
	movq	-40(%rbp), %rdx	# after.tv_usec, _18
	movq	-56(%rbp), %rax	# before.tv_usec, _19
	subq	%rax, %rdx	# _19, _18
	movq	%rdx, %rax	# _18, _20
	movl	-104(%rbp), %edi	# iterations, _21
	cqto
	idivq	%rdi	# _21
	cvtsi2sdq	%rax, %xmm0	# _22, _26
	jmp	.L3	#
.L14:
.L3:
.LBE9:
.LBE8:
# osm.cpp:102: }
	.loc 1 102 0
	movq	-24(%rbp), %rax	# D.41000, tmp163
	xorq	%fs:40, %rax	#, tmp163
	je	.L18	#,
	call	__stack_chk_fail@PLT	#
.L18:
	addq	$104, %rsp	#,
	popq	%rbx	#
	popq	%rbp	#
	.cfi_def_cfa 7, 8
	ret
	.cfi_endproc
.LFE1495:
	.size	_ZL19timeMeasurementTestij, .-_ZL19timeMeasurementTestij
	.globl	_Z18osm_operation_timej
	.type	_Z18osm_operation_timej, @function
_Z18osm_operation_timej:
.LFB1496:
	.loc 1 108 0
	.cfi_startproc
	pushq	%rbp	#
	.cfi_def_cfa_offset 16
	.cfi_offset 6, -16
	movq	%rsp, %rbp	#,
	.cfi_def_cfa_register 6
	subq	$16, %rsp	#,
	movl	%edi, -4(%rbp)	# iterations, iterations
# osm.cpp:109:     return timeMeasurementTest(ADDITION, iterations);
	.loc 1 109 0
	movl	_ZL8ADDITION(%rip), %eax	# ADDITION, ADDITION.6_1
	movl	-4(%rbp), %edx	# iterations, tmp90
	movl	%edx, %esi	# tmp90,
	movl	%eax, %edi	# ADDITION.6_1,
	call	_ZL19timeMeasurementTestij	#
	movq	%xmm0, %rax	#, _5
	movq	%rax, -16(%rbp)	# _5, %sfp
	movsd	-16(%rbp), %xmm0	# %sfp, <retval>
# osm.cpp:110: }
	.loc 1 110 0
	leave
	.cfi_def_cfa 7, 8
	ret
	.cfi_endproc
.LFE1496:
	.size	_Z18osm_operation_timej, .-_Z18osm_operation_timej
	.globl	_Z17osm_function_timej
	.type	_Z17osm_function_timej, @function
_Z17osm_function_timej:
.LFB1497:
	.loc 1 116 0
	.cfi_startproc
	pushq	%rbp	#
	.cfi_def_cfa_offset 16
	.cfi_offset 6, -16
	movq	%rsp, %rbp	#,
	.cfi_def_cfa_register 6
	subq	$16, %rsp	#,
	movl	%edi, -4(%rbp)	# iterations, iterations
# osm.cpp:117:     return timeMeasurementTest(FUNCTION, iterations);
	.loc 1 117 0
	movl	_ZL8FUNCTION(%rip), %eax	# FUNCTION, FUNCTION.7_1
	movl	-4(%rbp), %edx	# iterations, tmp90
	movl	%edx, %esi	# tmp90,
	movl	%eax, %edi	# FUNCTION.7_1,
	call	_ZL19timeMeasurementTestij	#
	movq	%xmm0, %rax	#, _5
	movq	%rax, -16(%rbp)	# _5, %sfp
	movsd	-16(%rbp), %xmm0	# %sfp, <retval>
# osm.cpp:118: }
	.loc 1 118 0
	leave
	.cfi_def_cfa 7, 8
	ret
	.cfi_endproc
.LFE1497:
	.size	_Z17osm_function_timej, .-_Z17osm_function_timej
	.globl	_Z16osm_syscall_timej
	.type	_Z16osm_syscall_timej, @function
_Z16osm_syscall_timej:
.LFB1498:
	.loc 1 124 0
	.cfi_startproc
	pushq	%rbp	#
	.cfi_def_cfa_offset 16
	.cfi_offset 6, -16
	movq	%rsp, %rbp	#,
	.cfi_def_cfa_register 6
	subq	$16, %rsp	#,
	movl	%edi, -4(%rbp)	# iterations, iterations
# osm.cpp:125:     return timeMeasurementTest(TRAP, iterations);
	.loc 1 125 0
	movl	_ZL4TRAP(%rip), %eax	# TRAP, TRAP.8_1
	movl	-4(%rbp), %edx	# iterations, tmp90
	movl	%edx, %esi	# tmp90,
	movl	%eax, %edi	# TRAP.8_1,
	call	_ZL19timeMeasurementTestij	#
	movq	%xmm0, %rax	#, _5
	movq	%rax, -16(%rbp)	# _5, %sfp
	movsd	-16(%rbp), %xmm0	# %sfp, <retval>
# osm.cpp:126: }
	.loc 1 126 0
	leave
	.cfi_def_cfa 7, 8
	ret
	.cfi_endproc
.LFE1498:
	.size	_Z16osm_syscall_timej, .-_Z16osm_syscall_timej
	.section	.rodata
	.align 8
.LC1:
	.string	"Enter the desired number of iterations: \n"
.LC2:
	.string	"Trap time is: "
.LC3:
	.string	"\n\nEmpty function time is: "
	.align 8
.LC4:
	.string	"\n\nAddition instruction time is: "
.LC5:
	.string	"\n"
	.text
	.globl	main
	.type	main, @function
main:
.LFB1499:
	.loc 1 129 0
	.cfi_startproc
	pushq	%rbp	#
	.cfi_def_cfa_offset 16
	.cfi_offset 6, -16
	movq	%rsp, %rbp	#,
	.cfi_def_cfa_register 6
	pushq	%rbx	#
	subq	$40, %rsp	#,
	.cfi_offset 3, -24
	movl	%edi, -36(%rbp)	# argc, argc
	movq	%rsi, -48(%rbp)	# argv, argv
# osm.cpp:129: {
	.loc 1 129 0
	movq	%fs:40, %rax	#, tmp106
	movq	%rax, -24(%rbp)	# tmp106, D.41004
	xorl	%eax, %eax	# tmp106
# osm.cpp:132:     std::cout<< "Enter the desired number of iterations: \n";
	.loc 1 132 0
	leaq	.LC1(%rip), %rsi	#,
	leaq	_ZSt4cout(%rip), %rdi	#,
	call	_ZStlsISt11char_traitsIcEERSt13basic_ostreamIcT_ES5_PKc@PLT	#
# osm.cpp:133:     std::cin >> iterations;
	.loc 1 133 0
	leaq	-28(%rbp), %rax	#, tmp104
	movq	%rax, %rsi	# tmp104,
	leaq	_ZSt3cin(%rip), %rdi	#,
	call	_ZNSirsERi@PLT	#
# osm.cpp:135:     std::cout << "Trap time is: " << osm_syscall_time(iterations) << "\n\nEmpty function time is: "
	.loc 1 135 0
	leaq	.LC2(%rip), %rsi	#,
	leaq	_ZSt4cout(%rip), %rdi	#,
	call	_ZStlsISt11char_traitsIcEERSt13basic_ostreamIcT_ES5_PKc@PLT	#
	movq	%rax, %rbx	#, _1
	movl	-28(%rbp), %eax	# iterations, iterations.9_2
	movl	%eax, %edi	# iterations.10_3,
	call	_Z16osm_syscall_timej	#
	movq	%rbx, %rdi	# _1,
	call	_ZNSolsEd@PLT	#
	leaq	.LC3(%rip), %rsi	#,
	movq	%rax, %rdi	# _5,
	call	_ZStlsISt11char_traitsIcEERSt13basic_ostreamIcT_ES5_PKc@PLT	#
	movq	%rax, %rbx	#, _6
# osm.cpp:136:     << osm_function_time(iterations) << "\n\nAddition instruction time is: " << osm_operation_time(iterations) << "\n";
	.loc 1 136 0
	movl	-28(%rbp), %eax	# iterations, iterations.11_7
	movl	%eax, %edi	# iterations.12_8,
	call	_Z17osm_function_timej	#
	movq	%rbx, %rdi	# _6,
	call	_ZNSolsEd@PLT	#
	leaq	.LC4(%rip), %rsi	#,
	movq	%rax, %rdi	# _10,
	call	_ZStlsISt11char_traitsIcEERSt13basic_ostreamIcT_ES5_PKc@PLT	#
	movq	%rax, %rbx	#, _11
	movl	-28(%rbp), %eax	# iterations, iterations.13_12
	movl	%eax, %edi	# iterations.14_13,
	call	_Z18osm_operation_timej	#
	movq	%rbx, %rdi	# _11,
	call	_ZNSolsEd@PLT	#
	leaq	.LC5(%rip), %rsi	#,
	movq	%rax, %rdi	# _15,
	call	_ZStlsISt11char_traitsIcEERSt13basic_ostreamIcT_ES5_PKc@PLT	#
# osm.cpp:138:     return EXIT_SUCCESS;
	.loc 1 138 0
	movl	$0, %eax	#, _36
# osm.cpp:139: }
	.loc 1 139 0
	movq	-24(%rbp), %rdx	# D.41004, tmp107
	xorq	%fs:40, %rdx	#, tmp107
	je	.L27	#,
	call	__stack_chk_fail@PLT	#
.L27:
	addq	$40, %rsp	#,
	popq	%rbx	#
	popq	%rbp	#
	.cfi_def_cfa 7, 8
	ret
	.cfi_endproc
.LFE1499:
	.size	main, .-main
	.type	_Z41__static_initialization_and_destruction_0ii, @function
_Z41__static_initialization_and_destruction_0ii:
.LFB1984:
	.loc 1 139 0
	.cfi_startproc
	pushq	%rbp	#
	.cfi_def_cfa_offset 16
	.cfi_offset 6, -16
	movq	%rsp, %rbp	#,
	.cfi_def_cfa_register 6
	subq	$16, %rsp	#,
	movl	%edi, -4(%rbp)	# __initialize_p, __initialize_p
	movl	%esi, -8(%rbp)	# __priority, __priority
# osm.cpp:139: }
	.loc 1 139 0
	cmpl	$1, -4(%rbp)	#, __initialize_p
	jne	.L30	#,
# osm.cpp:139: }
	.loc 1 139 0 is_stmt 0 discriminator 1
	cmpl	$65535, -8(%rbp)	#, __priority
	jne	.L30	#,
# /usr/include/c++/7/iostream:74:   static ios_base::Init __ioinit;
	.file 2 "/usr/include/c++/7/iostream"
	.loc 2 74 0 is_stmt 1
	leaq	_ZStL8__ioinit(%rip), %rdi	#,
	call	_ZNSt8ios_base4InitC1Ev@PLT	#
	leaq	__dso_handle(%rip), %rdx	#,
	leaq	_ZStL8__ioinit(%rip), %rsi	#,
	movq	_ZNSt8ios_base4InitD1Ev@GOTPCREL(%rip), %rax	#, tmp87
	movq	%rax, %rdi	# tmp87,
	call	__cxa_atexit@PLT	#
.L30:
# osm.cpp:139: }
	.loc 1 139 0
	nop
	leave
	.cfi_def_cfa 7, 8
	ret
	.cfi_endproc
.LFE1984:
	.size	_Z41__static_initialization_and_destruction_0ii, .-_Z41__static_initialization_and_destruction_0ii
	.type	_GLOBAL__sub_I__Z18osm_operation_timej, @function
_GLOBAL__sub_I__Z18osm_operation_timej:
.LFB1985:
	.loc 1 139 0
	.cfi_startproc
	pushq	%rbp	#
	.cfi_def_cfa_offset 16
	.cfi_offset 6, -16
	movq	%rsp, %rbp	#,
	.cfi_def_cfa_register 6
# osm.cpp:139: }
	.loc 1 139 0
	movl	$65535, %esi	#,
	movl	$1, %edi	#,
	call	_Z41__static_initialization_and_destruction_0ii	#
	popq	%rbp	#
	.cfi_def_cfa 7, 8
	ret
	.cfi_endproc
.LFE1985:
	.size	_GLOBAL__sub_I__Z18osm_operation_timej, .-_GLOBAL__sub_I__Z18osm_operation_timej
	.section	.init_array,"aw"
	.align 8
	.quad	_GLOBAL__sub_I__Z18osm_operation_timej
	.section	.rodata
	.align 8
.LC0:
	.long	0
	.long	-1074790400
	.text
.Letext0:
	.file 3 "/usr/include/x86_64-linux-gnu/bits/types.h"
	.file 4 "/usr/include/x86_64-linux-gnu/bits/types/struct_timeval.h"
	.file 5 "/usr/include/x86_64-linux-gnu/sys/time.h"
	.file 6 "/usr/lib/gcc/x86_64-linux-gnu/7/include/stddef.h"
	.file 7 "/usr/include/unistd.h"
	.file 8 "/usr/include/x86_64-linux-gnu/bits/getopt_core.h"
	.file 9 "/usr/include/c++/7/cwchar"
	.file 10 "/usr/include/c++/7/new"
	.file 11 "/usr/include/c++/7/bits/exception_ptr.h"
	.file 12 "/usr/include/x86_64-linux-gnu/c++/7/bits/c++config.h"
	.file 13 "/usr/include/c++/7/type_traits"
	.file 14 "/usr/include/c++/7/bits/cpp_type_traits.h"
	.file 15 "/usr/include/c++/7/bits/stl_pair.h"
	.file 16 "/usr/include/c++/7/debug/debug.h"
	.file 17 "/usr/include/c++/7/bits/char_traits.h"
	.file 18 "/usr/include/c++/7/cstdint"
	.file 19 "/usr/include/c++/7/clocale"
	.file 20 "/usr/include/c++/7/cstdlib"
	.file 21 "/usr/include/c++/7/cstdio"
	.file 22 "/usr/include/c++/7/bits/basic_string.h"
	.file 23 "/usr/include/c++/7/system_error"
	.file 24 "/usr/include/c++/7/bits/ios_base.h"
	.file 25 "/usr/include/c++/7/cwctype"
	.file 26 "/usr/include/c++/7/iosfwd"
	.file 27 "/usr/include/c++/7/bits/predefined_ops.h"
	.file 28 "/usr/include/c++/7/ext/new_allocator.h"
	.file 29 "/usr/include/c++/7/ext/numeric_traits.h"
	.file 30 "<built-in>"
	.file 31 "/usr/include/x86_64-linux-gnu/bits/types/wint_t.h"
	.file 32 "/usr/include/x86_64-linux-gnu/bits/types/__mbstate_t.h"
	.file 33 "/usr/include/x86_64-linux-gnu/bits/types/mbstate_t.h"
	.file 34 "/usr/include/x86_64-linux-gnu/bits/types/__FILE.h"
	.file 35 "/usr/include/x86_64-linux-gnu/bits/libio.h"
	.file 36 "/usr/include/x86_64-linux-gnu/bits/types/FILE.h"
	.file 37 "/usr/include/wchar.h"
	.file 38 "/usr/include/x86_64-linux-gnu/bits/types/struct_tm.h"
	.file 39 "/usr/include/x86_64-linux-gnu/bits/stdint-intn.h"
	.file 40 "/usr/include/x86_64-linux-gnu/bits/stdint-uintn.h"
	.file 41 "/usr/include/stdint.h"
	.file 42 "/usr/include/locale.h"
	.file 43 "/usr/include/time.h"
	.file 44 "/usr/include/x86_64-linux-gnu/c++/7/bits/atomic_word.h"
	.file 45 "/usr/include/stdlib.h"
	.file 46 "/usr/include/x86_64-linux-gnu/bits/_G_config.h"
	.file 47 "/usr/include/stdio.h"
	.file 48 "/usr/include/x86_64-linux-gnu/bits/sys_errlist.h"
	.file 49 "/usr/include/errno.h"
	.file 50 "/usr/include/x86_64-linux-gnu/bits/wctype-wchar.h"
	.file 51 "/usr/include/wctype.h"
	.section	.debug_info,"",@progbits
.Ldebug_info0:
	.long	0x2b7d
	.value	0x4
	.long	.Ldebug_abbrev0
	.byte	0x8
	.uleb128 0x1
	.long	.LASF499
	.byte	0x4
	.long	.LASF500
	.long	.LASF501
	.quad	.Ltext0
	.quad	.Letext0-.Ltext0
	.long	.Ldebug_line0
	.uleb128 0x2
	.byte	0x1
	.byte	0x8
	.long	.LASF0
	.uleb128 0x2
	.byte	0x2
	.byte	0x7
	.long	.LASF1
	.uleb128 0x2
	.byte	0x4
	.byte	0x7
	.long	.LASF2
	.uleb128 0x2
	.byte	0x8
	.byte	0x7
	.long	.LASF3
	.uleb128 0x3
	.long	0x42
	.uleb128 0x4
	.long	.LASF5
	.byte	0x3
	.byte	0x24
	.long	0x59
	.uleb128 0x2
	.byte	0x1
	.byte	0x6
	.long	.LASF4
	.uleb128 0x4
	.long	.LASF6
	.byte	0x3
	.byte	0x25
	.long	0x2d
	.uleb128 0x4
	.long	.LASF7
	.byte	0x3
	.byte	0x26
	.long	0x76
	.uleb128 0x2
	.byte	0x2
	.byte	0x5
	.long	.LASF8
	.uleb128 0x3
	.long	0x76
	.uleb128 0x4
	.long	.LASF9
	.byte	0x3
	.byte	0x27
	.long	0x34
	.uleb128 0x4
	.long	.LASF10
	.byte	0x3
	.byte	0x28
	.long	0x9d
	.uleb128 0x3
	.long	0x8d
	.uleb128 0x5
	.byte	0x4
	.byte	0x5
	.string	"int"
	.uleb128 0x3
	.long	0x9d
	.uleb128 0x4
	.long	.LASF11
	.byte	0x3
	.byte	0x29
	.long	0x3b
	.uleb128 0x4
	.long	.LASF12
	.byte	0x3
	.byte	0x2b
	.long	0xbf
	.uleb128 0x2
	.byte	0x8
	.byte	0x5
	.long	.LASF13
	.uleb128 0x3
	.long	0xbf
	.uleb128 0x4
	.long	.LASF14
	.byte	0x3
	.byte	0x2c
	.long	0x42
	.uleb128 0x4
	.long	.LASF15
	.byte	0x3
	.byte	0x3d
	.long	0xbf
	.uleb128 0x4
	.long	.LASF16
	.byte	0x3
	.byte	0x3e
	.long	0x42
	.uleb128 0x4
	.long	.LASF17
	.byte	0x3
	.byte	0x8c
	.long	0xbf
	.uleb128 0x4
	.long	.LASF18
	.byte	0x3
	.byte	0x8d
	.long	0xbf
	.uleb128 0x4
	.long	.LASF19
	.byte	0x3
	.byte	0x94
	.long	0xbf
	.uleb128 0x4
	.long	.LASF20
	.byte	0x3
	.byte	0x96
	.long	0xbf
	.uleb128 0x6
	.byte	0x8
	.uleb128 0x7
	.byte	0x8
	.long	0x120
	.uleb128 0x2
	.byte	0x1
	.byte	0x6
	.long	.LASF21
	.uleb128 0x3
	.long	0x120
	.uleb128 0x4
	.long	.LASF22
	.byte	0x3
	.byte	0xc2
	.long	0xbf
	.uleb128 0x8
	.long	.LASF25
	.byte	0x10
	.byte	0x4
	.byte	0x8
	.long	0x15c
	.uleb128 0x9
	.long	.LASF23
	.byte	0x4
	.byte	0xa
	.long	0x102
	.byte	0
	.uleb128 0x9
	.long	.LASF24
	.byte	0x4
	.byte	0xb
	.long	0x10d
	.byte	0x8
	.byte	0
	.uleb128 0x8
	.long	.LASF26
	.byte	0x8
	.byte	0x5
	.byte	0x34
	.long	0x181
	.uleb128 0x9
	.long	.LASF27
	.byte	0x5
	.byte	0x36
	.long	0x9d
	.byte	0
	.uleb128 0x9
	.long	.LASF28
	.byte	0x5
	.byte	0x37
	.long	0x9d
	.byte	0x4
	.byte	0
	.uleb128 0x7
	.byte	0x8
	.long	0x15c
	.uleb128 0xa
	.long	0x181
	.uleb128 0x4
	.long	.LASF29
	.byte	0x6
	.byte	0xd8
	.long	0x42
	.uleb128 0xb
	.long	.LASF30
	.byte	0x7
	.value	0x10e
	.long	0x12c
	.uleb128 0xc
	.long	.LASF31
	.byte	0x7
	.value	0x222
	.long	0x1af
	.uleb128 0x7
	.byte	0x8
	.long	0x11a
	.uleb128 0xc
	.long	.LASF32
	.byte	0x7
	.value	0x224
	.long	0x1af
	.uleb128 0xd
	.long	.LASF33
	.byte	0x8
	.byte	0x24
	.long	0x11a
	.uleb128 0xd
	.long	.LASF34
	.byte	0x8
	.byte	0x32
	.long	0x9d
	.uleb128 0xd
	.long	.LASF35
	.byte	0x8
	.byte	0x37
	.long	0x9d
	.uleb128 0xd
	.long	.LASF36
	.byte	0x8
	.byte	0x3b
	.long	0x9d
	.uleb128 0xe
	.string	"std"
	.byte	0x1e
	.byte	0
	.long	0xfeb
	.uleb128 0xf
	.long	.LASF76
	.byte	0xc
	.byte	0xfd
	.uleb128 0x10
	.byte	0xc
	.byte	0xfd
	.long	0x1f8
	.uleb128 0x11
	.byte	0x9
	.byte	0x40
	.long	0x1358
	.uleb128 0x11
	.byte	0x9
	.byte	0x8b
	.long	0x12ee
	.uleb128 0x11
	.byte	0x9
	.byte	0x8d
	.long	0x1509
	.uleb128 0x11
	.byte	0x9
	.byte	0x8e
	.long	0x151f
	.uleb128 0x11
	.byte	0x9
	.byte	0x8f
	.long	0x153b
	.uleb128 0x11
	.byte	0x9
	.byte	0x90
	.long	0x156d
	.uleb128 0x11
	.byte	0x9
	.byte	0x91
	.long	0x1588
	.uleb128 0x11
	.byte	0x9
	.byte	0x92
	.long	0x15a9
	.uleb128 0x11
	.byte	0x9
	.byte	0x93
	.long	0x15c4
	.uleb128 0x11
	.byte	0x9
	.byte	0x94
	.long	0x15e0
	.uleb128 0x11
	.byte	0x9
	.byte	0x95
	.long	0x15fc
	.uleb128 0x11
	.byte	0x9
	.byte	0x96
	.long	0x1612
	.uleb128 0x11
	.byte	0x9
	.byte	0x97
	.long	0x161e
	.uleb128 0x11
	.byte	0x9
	.byte	0x98
	.long	0x1644
	.uleb128 0x11
	.byte	0x9
	.byte	0x99
	.long	0x1669
	.uleb128 0x11
	.byte	0x9
	.byte	0x9a
	.long	0x1685
	.uleb128 0x11
	.byte	0x9
	.byte	0x9b
	.long	0x16b0
	.uleb128 0x11
	.byte	0x9
	.byte	0x9c
	.long	0x16cb
	.uleb128 0x11
	.byte	0x9
	.byte	0x9e
	.long	0x16e1
	.uleb128 0x11
	.byte	0x9
	.byte	0xa0
	.long	0x1702
	.uleb128 0x11
	.byte	0x9
	.byte	0xa1
	.long	0x171e
	.uleb128 0x11
	.byte	0x9
	.byte	0xa2
	.long	0x1739
	.uleb128 0x11
	.byte	0x9
	.byte	0xa4
	.long	0x175f
	.uleb128 0x11
	.byte	0x9
	.byte	0xa7
	.long	0x177f
	.uleb128 0x11
	.byte	0x9
	.byte	0xaa
	.long	0x17a4
	.uleb128 0x11
	.byte	0x9
	.byte	0xac
	.long	0x17c4
	.uleb128 0x11
	.byte	0x9
	.byte	0xae
	.long	0x17df
	.uleb128 0x11
	.byte	0x9
	.byte	0xb0
	.long	0x17fa
	.uleb128 0x11
	.byte	0x9
	.byte	0xb1
	.long	0x181a
	.uleb128 0x11
	.byte	0x9
	.byte	0xb2
	.long	0x1834
	.uleb128 0x11
	.byte	0x9
	.byte	0xb3
	.long	0x184e
	.uleb128 0x11
	.byte	0x9
	.byte	0xb4
	.long	0x1868
	.uleb128 0x11
	.byte	0x9
	.byte	0xb5
	.long	0x1882
	.uleb128 0x11
	.byte	0x9
	.byte	0xb6
	.long	0x189c
	.uleb128 0x11
	.byte	0x9
	.byte	0xb7
	.long	0x195c
	.uleb128 0x11
	.byte	0x9
	.byte	0xb8
	.long	0x1971
	.uleb128 0x11
	.byte	0x9
	.byte	0xb9
	.long	0x1990
	.uleb128 0x11
	.byte	0x9
	.byte	0xba
	.long	0x19af
	.uleb128 0x11
	.byte	0x9
	.byte	0xbb
	.long	0x19ce
	.uleb128 0x11
	.byte	0x9
	.byte	0xbc
	.long	0x19f9
	.uleb128 0x11
	.byte	0x9
	.byte	0xbd
	.long	0x1a13
	.uleb128 0x11
	.byte	0x9
	.byte	0xbf
	.long	0x1a34
	.uleb128 0x11
	.byte	0x9
	.byte	0xc1
	.long	0x1a4f
	.uleb128 0x11
	.byte	0x9
	.byte	0xc2
	.long	0x1a6e
	.uleb128 0x11
	.byte	0x9
	.byte	0xc3
	.long	0x1a8e
	.uleb128 0x11
	.byte	0x9
	.byte	0xc4
	.long	0x1aae
	.uleb128 0x11
	.byte	0x9
	.byte	0xc5
	.long	0x1acd
	.uleb128 0x11
	.byte	0x9
	.byte	0xc6
	.long	0x1ae3
	.uleb128 0x11
	.byte	0x9
	.byte	0xc7
	.long	0x1b03
	.uleb128 0x11
	.byte	0x9
	.byte	0xc8
	.long	0x1b23
	.uleb128 0x11
	.byte	0x9
	.byte	0xc9
	.long	0x1b43
	.uleb128 0x11
	.byte	0x9
	.byte	0xca
	.long	0x1b63
	.uleb128 0x11
	.byte	0x9
	.byte	0xcb
	.long	0x1b7a
	.uleb128 0x11
	.byte	0x9
	.byte	0xcc
	.long	0x1b91
	.uleb128 0x11
	.byte	0x9
	.byte	0xcd
	.long	0x1baf
	.uleb128 0x11
	.byte	0x9
	.byte	0xce
	.long	0x1bcd
	.uleb128 0x11
	.byte	0x9
	.byte	0xcf
	.long	0x1beb
	.uleb128 0x11
	.byte	0x9
	.byte	0xd0
	.long	0x1c09
	.uleb128 0x12
	.byte	0x9
	.value	0x108
	.long	0x1c2c
	.uleb128 0x12
	.byte	0x9
	.value	0x109
	.long	0x1c47
	.uleb128 0x12
	.byte	0x9
	.value	0x10a
	.long	0x1c6e
	.uleb128 0x12
	.byte	0x9
	.value	0x118
	.long	0x1a34
	.uleb128 0x12
	.byte	0x9
	.value	0x11b
	.long	0x175f
	.uleb128 0x12
	.byte	0x9
	.value	0x11e
	.long	0x17a4
	.uleb128 0x12
	.byte	0x9
	.value	0x121
	.long	0x17df
	.uleb128 0x12
	.byte	0x9
	.value	0x125
	.long	0x1c2c
	.uleb128 0x12
	.byte	0x9
	.value	0x126
	.long	0x1c47
	.uleb128 0x12
	.byte	0x9
	.value	0x127
	.long	0x1c6e
	.uleb128 0x8
	.long	.LASF37
	.byte	0x1
	.byte	0xa
	.byte	0x56
	.long	0x40f
	.uleb128 0x13
	.long	.LASF37
	.byte	0xa
	.byte	0x59
	.long	.LASF41
	.byte	0x1
	.long	0x408
	.uleb128 0x14
	.long	0x1c9a
	.byte	0
	.byte	0
	.uleb128 0x3
	.long	0x3ec
	.uleb128 0x15
	.long	.LASF85
	.byte	0xa
	.byte	0x5d
	.long	.LASF148
	.long	0x40f
	.uleb128 0x16
	.long	.LASF38
	.byte	0xb
	.byte	0x34
	.long	0x5f4
	.uleb128 0x17
	.long	.LASF40
	.byte	0x8
	.byte	0xb
	.byte	0x4f
	.long	0x5e7
	.uleb128 0x9
	.long	.LASF39
	.byte	0xb
	.byte	0x51
	.long	0x118
	.byte	0
	.uleb128 0x18
	.long	.LASF40
	.byte	0xb
	.byte	0x53
	.long	.LASF42
	.long	0x459
	.long	0x464
	.uleb128 0x14
	.long	0x1ca0
	.uleb128 0x19
	.long	0x118
	.byte	0
	.uleb128 0x1a
	.long	.LASF43
	.byte	0xb
	.byte	0x55
	.long	.LASF45
	.long	0x477
	.long	0x47d
	.uleb128 0x14
	.long	0x1ca0
	.byte	0
	.uleb128 0x1a
	.long	.LASF44
	.byte	0xb
	.byte	0x56
	.long	.LASF46
	.long	0x490
	.long	0x496
	.uleb128 0x14
	.long	0x1ca0
	.byte	0
	.uleb128 0x1b
	.long	.LASF47
	.byte	0xb
	.byte	0x58
	.long	.LASF48
	.long	0x118
	.long	0x4ad
	.long	0x4b3
	.uleb128 0x14
	.long	0x1ca6
	.byte	0
	.uleb128 0x1c
	.long	.LASF40
	.byte	0xb
	.byte	0x60
	.long	.LASF49
	.byte	0x1
	.long	0x4c7
	.long	0x4cd
	.uleb128 0x14
	.long	0x1ca0
	.byte	0
	.uleb128 0x1c
	.long	.LASF40
	.byte	0xb
	.byte	0x62
	.long	.LASF50
	.byte	0x1
	.long	0x4e1
	.long	0x4ec
	.uleb128 0x14
	.long	0x1ca0
	.uleb128 0x19
	.long	0x1cac
	.byte	0
	.uleb128 0x1c
	.long	.LASF40
	.byte	0xb
	.byte	0x65
	.long	.LASF51
	.byte	0x1
	.long	0x500
	.long	0x50b
	.uleb128 0x14
	.long	0x1ca0
	.uleb128 0x19
	.long	0x610
	.byte	0
	.uleb128 0x1c
	.long	.LASF40
	.byte	0xb
	.byte	0x69
	.long	.LASF52
	.byte	0x1
	.long	0x51f
	.long	0x52a
	.uleb128 0x14
	.long	0x1ca0
	.uleb128 0x19
	.long	0x1cb2
	.byte	0
	.uleb128 0x1d
	.long	.LASF53
	.byte	0xb
	.byte	0x76
	.long	.LASF54
	.long	0x1cb8
	.byte	0x1
	.long	0x542
	.long	0x54d
	.uleb128 0x14
	.long	0x1ca0
	.uleb128 0x19
	.long	0x1cac
	.byte	0
	.uleb128 0x1d
	.long	.LASF53
	.byte	0xb
	.byte	0x7a
	.long	.LASF55
	.long	0x1cb8
	.byte	0x1
	.long	0x565
	.long	0x570
	.uleb128 0x14
	.long	0x1ca0
	.uleb128 0x19
	.long	0x1cb2
	.byte	0
	.uleb128 0x1c
	.long	.LASF56
	.byte	0xb
	.byte	0x81
	.long	.LASF57
	.byte	0x1
	.long	0x584
	.long	0x58f
	.uleb128 0x14
	.long	0x1ca0
	.uleb128 0x14
	.long	0x9d
	.byte	0
	.uleb128 0x1c
	.long	.LASF58
	.byte	0xb
	.byte	0x84
	.long	.LASF59
	.byte	0x1
	.long	0x5a3
	.long	0x5ae
	.uleb128 0x14
	.long	0x1ca0
	.uleb128 0x19
	.long	0x1cb8
	.byte	0
	.uleb128 0x1e
	.long	.LASF484
	.byte	0xb
	.byte	0x90
	.long	.LASF486
	.long	0x1cbe
	.byte	0x1
	.long	0x5c6
	.long	0x5cc
	.uleb128 0x14
	.long	0x1ca6
	.byte	0
	.uleb128 0x1f
	.long	.LASF60
	.byte	0xb
	.byte	0x99
	.long	.LASF61
	.long	0x1cca
	.byte	0x1
	.long	0x5e0
	.uleb128 0x14
	.long	0x1ca6
	.byte	0
	.byte	0
	.uleb128 0x3
	.long	0x42e
	.uleb128 0x11
	.byte	0xb
	.byte	0x49
	.long	0x5fb
	.byte	0
	.uleb128 0x11
	.byte	0xb
	.byte	0x39
	.long	0x42e
	.uleb128 0x20
	.long	.LASF62
	.byte	0xb
	.byte	0x45
	.long	.LASF63
	.long	0x610
	.uleb128 0x19
	.long	0x42e
	.byte	0
	.uleb128 0x4
	.long	.LASF64
	.byte	0xc
	.byte	0xeb
	.long	0x1c95
	.uleb128 0x21
	.long	.LASF502
	.uleb128 0x3
	.long	0x61b
	.uleb128 0x8
	.long	.LASF65
	.byte	0x1
	.byte	0xd
	.byte	0x45
	.long	0x696
	.uleb128 0x22
	.long	.LASF72
	.byte	0xd
	.byte	0x47
	.long	0x1cc5
	.uleb128 0x4
	.long	.LASF66
	.byte	0xd
	.byte	0x48
	.long	0x1cbe
	.uleb128 0x1b
	.long	.LASF67
	.byte	0xd
	.byte	0x4a
	.long	.LASF68
	.long	0x63c
	.long	0x65e
	.long	0x664
	.uleb128 0x14
	.long	0x1cd0
	.byte	0
	.uleb128 0x1b
	.long	.LASF69
	.byte	0xd
	.byte	0x4f
	.long	.LASF70
	.long	0x63c
	.long	0x67b
	.long	0x681
	.uleb128 0x14
	.long	0x1cd0
	.byte	0
	.uleb128 0x23
	.string	"_Tp"
	.long	0x1cbe
	.uleb128 0x24
	.string	"__v"
	.long	0x1cbe
	.byte	0x1
	.byte	0
	.byte	0
	.uleb128 0x3
	.long	0x625
	.uleb128 0x8
	.long	.LASF71
	.byte	0x1
	.byte	0xd
	.byte	0x45
	.long	0x70c
	.uleb128 0x22
	.long	.LASF72
	.byte	0xd
	.byte	0x47
	.long	0x1cc5
	.uleb128 0x4
	.long	.LASF66
	.byte	0xd
	.byte	0x48
	.long	0x1cbe
	.uleb128 0x1b
	.long	.LASF73
	.byte	0xd
	.byte	0x4a
	.long	.LASF74
	.long	0x6b2
	.long	0x6d4
	.long	0x6da
	.uleb128 0x14
	.long	0x1cd6
	.byte	0
	.uleb128 0x1b
	.long	.LASF69
	.byte	0xd
	.byte	0x4f
	.long	.LASF75
	.long	0x6b2
	.long	0x6f1
	.long	0x6f7
	.uleb128 0x14
	.long	0x1cd6
	.byte	0
	.uleb128 0x23
	.string	"_Tp"
	.long	0x1cbe
	.uleb128 0x24
	.string	"__v"
	.long	0x1cbe
	.byte	0x1
	.byte	0x1
	.byte	0
	.uleb128 0x3
	.long	0x69b
	.uleb128 0x25
	.long	.LASF77
	.byte	0xd
	.value	0xa20
	.uleb128 0x25
	.long	.LASF78
	.byte	0xd
	.value	0xa6e
	.uleb128 0x8
	.long	.LASF79
	.byte	0x1
	.byte	0xe
	.byte	0x7f
	.long	0x74b
	.uleb128 0x26
	.byte	0x7
	.byte	0x4
	.long	0x3b
	.byte	0xe
	.byte	0x81
	.long	0x741
	.uleb128 0x27
	.long	.LASF81
	.byte	0
	.byte	0
	.uleb128 0x23
	.string	"_Tp"
	.long	0x12aa
	.byte	0
	.uleb128 0x8
	.long	.LASF80
	.byte	0x1
	.byte	0xe
	.byte	0x7f
	.long	0x775
	.uleb128 0x26
	.byte	0x7
	.byte	0x4
	.long	0x3b
	.byte	0xe
	.byte	0x81
	.long	0x76b
	.uleb128 0x27
	.long	.LASF81
	.byte	0
	.byte	0
	.uleb128 0x23
	.string	"_Tp"
	.long	0x12a3
	.byte	0
	.uleb128 0x8
	.long	.LASF82
	.byte	0x1
	.byte	0xe
	.byte	0x7f
	.long	0x79f
	.uleb128 0x26
	.byte	0x7
	.byte	0x4
	.long	0x3b
	.byte	0xe
	.byte	0x81
	.long	0x795
	.uleb128 0x27
	.long	.LASF81
	.byte	0
	.byte	0
	.uleb128 0x23
	.string	"_Tp"
	.long	0x129c
	.byte	0
	.uleb128 0x8
	.long	.LASF83
	.byte	0x1
	.byte	0xf
	.byte	0x4c
	.long	0x7c2
	.uleb128 0x13
	.long	.LASF83
	.byte	0xf
	.byte	0x4c
	.long	.LASF84
	.byte	0x1
	.long	0x7bb
	.uleb128 0x14
	.long	0x1cea
	.byte	0
	.byte	0
	.uleb128 0x3
	.long	0x79f
	.uleb128 0x28
	.long	.LASF86
	.byte	0xf
	.byte	0x4f
	.long	0x7c2
	.byte	0x1
	.byte	0
	.uleb128 0xf
	.long	.LASF87
	.byte	0x10
	.byte	0x32
	.uleb128 0x29
	.long	.LASF88
	.byte	0x1
	.byte	0x11
	.value	0x113
	.long	0x9a9
	.uleb128 0xb
	.long	.LASF89
	.byte	0x11
	.value	0x115
	.long	0x120
	.uleb128 0x3
	.long	0x7e8
	.uleb128 0xb
	.long	.LASF90
	.byte	0x11
	.value	0x116
	.long	0x9d
	.uleb128 0x3
	.long	0x7f9
	.uleb128 0x2a
	.long	.LASF103
	.byte	0x11
	.value	0x11c
	.long	.LASF112
	.long	0x825
	.uleb128 0x19
	.long	0x1d08
	.uleb128 0x19
	.long	0x1d0e
	.byte	0
	.uleb128 0x2b
	.string	"eq"
	.byte	0x11
	.value	0x120
	.long	.LASF91
	.long	0x1cbe
	.long	0x843
	.uleb128 0x19
	.long	0x1d0e
	.uleb128 0x19
	.long	0x1d0e
	.byte	0
	.uleb128 0x2b
	.string	"lt"
	.byte	0x11
	.value	0x124
	.long	.LASF92
	.long	0x1cbe
	.long	0x861
	.uleb128 0x19
	.long	0x1d0e
	.uleb128 0x19
	.long	0x1d0e
	.byte	0
	.uleb128 0x2c
	.long	.LASF93
	.byte	0x11
	.value	0x12c
	.long	.LASF95
	.long	0x9d
	.long	0x885
	.uleb128 0x19
	.long	0x1d14
	.uleb128 0x19
	.long	0x1d14
	.uleb128 0x19
	.long	0x9a9
	.byte	0
	.uleb128 0x2c
	.long	.LASF94
	.byte	0x11
	.value	0x13a
	.long	.LASF96
	.long	0x9a9
	.long	0x89f
	.uleb128 0x19
	.long	0x1d14
	.byte	0
	.uleb128 0x2c
	.long	.LASF97
	.byte	0x11
	.value	0x144
	.long	.LASF98
	.long	0x1d14
	.long	0x8c3
	.uleb128 0x19
	.long	0x1d14
	.uleb128 0x19
	.long	0x9a9
	.uleb128 0x19
	.long	0x1d0e
	.byte	0
	.uleb128 0x2c
	.long	.LASF99
	.byte	0x11
	.value	0x152
	.long	.LASF100
	.long	0x1d1a
	.long	0x8e7
	.uleb128 0x19
	.long	0x1d1a
	.uleb128 0x19
	.long	0x1d14
	.uleb128 0x19
	.long	0x9a9
	.byte	0
	.uleb128 0x2c
	.long	.LASF101
	.byte	0x11
	.value	0x15a
	.long	.LASF102
	.long	0x1d1a
	.long	0x90b
	.uleb128 0x19
	.long	0x1d1a
	.uleb128 0x19
	.long	0x1d14
	.uleb128 0x19
	.long	0x9a9
	.byte	0
	.uleb128 0x2c
	.long	.LASF103
	.byte	0x11
	.value	0x162
	.long	.LASF104
	.long	0x1d1a
	.long	0x92f
	.uleb128 0x19
	.long	0x1d1a
	.uleb128 0x19
	.long	0x9a9
	.uleb128 0x19
	.long	0x7e8
	.byte	0
	.uleb128 0x2c
	.long	.LASF105
	.byte	0x11
	.value	0x16a
	.long	.LASF106
	.long	0x7e8
	.long	0x949
	.uleb128 0x19
	.long	0x1d20
	.byte	0
	.uleb128 0x2c
	.long	.LASF107
	.byte	0x11
	.value	0x170
	.long	.LASF108
	.long	0x7f9
	.long	0x963
	.uleb128 0x19
	.long	0x1d0e
	.byte	0
	.uleb128 0x2c
	.long	.LASF109
	.byte	0x11
	.value	0x174
	.long	.LASF110
	.long	0x1cbe
	.long	0x982
	.uleb128 0x19
	.long	0x1d20
	.uleb128 0x19
	.long	0x1d20
	.byte	0
	.uleb128 0x2d
	.string	"eof"
	.byte	0x11
	.value	0x178
	.long	.LASF127
	.long	0x7f9
	.uleb128 0x2e
	.long	.LASF111
	.byte	0x11
	.value	0x17c
	.long	.LASF113
	.long	0x7f9
	.uleb128 0x19
	.long	0x1d20
	.byte	0
	.byte	0
	.uleb128 0x4
	.long	.LASF29
	.byte	0xc
	.byte	0xe7
	.long	0x42
	.uleb128 0x29
	.long	.LASF114
	.byte	0x1
	.byte	0x11
	.value	0x184
	.long	0xb82
	.uleb128 0xb
	.long	.LASF89
	.byte	0x11
	.value	0x186
	.long	0x1561
	.uleb128 0x3
	.long	0x9c1
	.uleb128 0xb
	.long	.LASF90
	.byte	0x11
	.value	0x187
	.long	0x12ee
	.uleb128 0x3
	.long	0x9d2
	.uleb128 0x2a
	.long	.LASF103
	.byte	0x11
	.value	0x18d
	.long	.LASF115
	.long	0x9fe
	.uleb128 0x19
	.long	0x1d26
	.uleb128 0x19
	.long	0x1d2c
	.byte	0
	.uleb128 0x2b
	.string	"eq"
	.byte	0x11
	.value	0x191
	.long	.LASF116
	.long	0x1cbe
	.long	0xa1c
	.uleb128 0x19
	.long	0x1d2c
	.uleb128 0x19
	.long	0x1d2c
	.byte	0
	.uleb128 0x2b
	.string	"lt"
	.byte	0x11
	.value	0x195
	.long	.LASF117
	.long	0x1cbe
	.long	0xa3a
	.uleb128 0x19
	.long	0x1d2c
	.uleb128 0x19
	.long	0x1d2c
	.byte	0
	.uleb128 0x2c
	.long	.LASF93
	.byte	0x11
	.value	0x199
	.long	.LASF118
	.long	0x9d
	.long	0xa5e
	.uleb128 0x19
	.long	0x1d32
	.uleb128 0x19
	.long	0x1d32
	.uleb128 0x19
	.long	0x9a9
	.byte	0
	.uleb128 0x2c
	.long	.LASF94
	.byte	0x11
	.value	0x1a8
	.long	.LASF119
	.long	0x9a9
	.long	0xa78
	.uleb128 0x19
	.long	0x1d32
	.byte	0
	.uleb128 0x2c
	.long	.LASF97
	.byte	0x11
	.value	0x1b3
	.long	.LASF120
	.long	0x1d32
	.long	0xa9c
	.uleb128 0x19
	.long	0x1d32
	.uleb128 0x19
	.long	0x9a9
	.uleb128 0x19
	.long	0x1d2c
	.byte	0
	.uleb128 0x2c
	.long	.LASF99
	.byte	0x11
	.value	0x1c2
	.long	.LASF121
	.long	0x1d38
	.long	0xac0
	.uleb128 0x19
	.long	0x1d38
	.uleb128 0x19
	.long	0x1d32
	.uleb128 0x19
	.long	0x9a9
	.byte	0
	.uleb128 0x2c
	.long	.LASF101
	.byte	0x11
	.value	0x1ca
	.long	.LASF122
	.long	0x1d38
	.long	0xae4
	.uleb128 0x19
	.long	0x1d38
	.uleb128 0x19
	.long	0x1d32
	.uleb128 0x19
	.long	0x9a9
	.byte	0
	.uleb128 0x2c
	.long	.LASF103
	.byte	0x11
	.value	0x1d2
	.long	.LASF123
	.long	0x1d38
	.long	0xb08
	.uleb128 0x19
	.long	0x1d38
	.uleb128 0x19
	.long	0x9a9
	.uleb128 0x19
	.long	0x9c1
	.byte	0
	.uleb128 0x2c
	.long	.LASF105
	.byte	0x11
	.value	0x1da
	.long	.LASF124
	.long	0x9c1
	.long	0xb22
	.uleb128 0x19
	.long	0x1d3e
	.byte	0
	.uleb128 0x2c
	.long	.LASF107
	.byte	0x11
	.value	0x1de
	.long	.LASF125
	.long	0x9d2
	.long	0xb3c
	.uleb128 0x19
	.long	0x1d2c
	.byte	0
	.uleb128 0x2c
	.long	.LASF109
	.byte	0x11
	.value	0x1e2
	.long	.LASF126
	.long	0x1cbe
	.long	0xb5b
	.uleb128 0x19
	.long	0x1d3e
	.uleb128 0x19
	.long	0x1d3e
	.byte	0
	.uleb128 0x2d
	.string	"eof"
	.byte	0x11
	.value	0x1e6
	.long	.LASF128
	.long	0x9d2
	.uleb128 0x2e
	.long	.LASF111
	.byte	0x11
	.value	0x1ea
	.long	.LASF129
	.long	0x9d2
	.uleb128 0x19
	.long	0x1d3e
	.byte	0
	.byte	0
	.uleb128 0x11
	.byte	0x12
	.byte	0x30
	.long	0x1d44
	.uleb128 0x11
	.byte	0x12
	.byte	0x31
	.long	0x1d4f
	.uleb128 0x11
	.byte	0x12
	.byte	0x32
	.long	0x1d5a
	.uleb128 0x11
	.byte	0x12
	.byte	0x33
	.long	0x1d65
	.uleb128 0x11
	.byte	0x12
	.byte	0x35
	.long	0x1df4
	.uleb128 0x11
	.byte	0x12
	.byte	0x36
	.long	0x1dff
	.uleb128 0x11
	.byte	0x12
	.byte	0x37
	.long	0x1e0a
	.uleb128 0x11
	.byte	0x12
	.byte	0x38
	.long	0x1e15
	.uleb128 0x11
	.byte	0x12
	.byte	0x3a
	.long	0x1d9c
	.uleb128 0x11
	.byte	0x12
	.byte	0x3b
	.long	0x1da7
	.uleb128 0x11
	.byte	0x12
	.byte	0x3c
	.long	0x1db2
	.uleb128 0x11
	.byte	0x12
	.byte	0x3d
	.long	0x1dbd
	.uleb128 0x11
	.byte	0x12
	.byte	0x3f
	.long	0x1e57
	.uleb128 0x11
	.byte	0x12
	.byte	0x40
	.long	0x197
	.uleb128 0x11
	.byte	0x12
	.byte	0x42
	.long	0x1d70
	.uleb128 0x11
	.byte	0x12
	.byte	0x43
	.long	0x1d7b
	.uleb128 0x11
	.byte	0x12
	.byte	0x44
	.long	0x1d86
	.uleb128 0x11
	.byte	0x12
	.byte	0x45
	.long	0x1d91
	.uleb128 0x11
	.byte	0x12
	.byte	0x47
	.long	0x1e20
	.uleb128 0x11
	.byte	0x12
	.byte	0x48
	.long	0x1e2b
	.uleb128 0x11
	.byte	0x12
	.byte	0x49
	.long	0x1e36
	.uleb128 0x11
	.byte	0x12
	.byte	0x4a
	.long	0x1e41
	.uleb128 0x11
	.byte	0x12
	.byte	0x4c
	.long	0x1dc8
	.uleb128 0x11
	.byte	0x12
	.byte	0x4d
	.long	0x1dd3
	.uleb128 0x11
	.byte	0x12
	.byte	0x4e
	.long	0x1dde
	.uleb128 0x11
	.byte	0x12
	.byte	0x4f
	.long	0x1de9
	.uleb128 0x11
	.byte	0x12
	.byte	0x51
	.long	0x1e62
	.uleb128 0x11
	.byte	0x12
	.byte	0x52
	.long	0x1e4c
	.uleb128 0x11
	.byte	0x13
	.byte	0x35
	.long	0x1e7b
	.uleb128 0x11
	.byte	0x13
	.byte	0x36
	.long	0x1fa8
	.uleb128 0x11
	.byte	0x13
	.byte	0x37
	.long	0x1fc2
	.uleb128 0x4
	.long	.LASF130
	.byte	0xc
	.byte	0xe8
	.long	0xbf
	.uleb128 0x11
	.byte	0x14
	.byte	0x7f
	.long	0x2068
	.uleb128 0x11
	.byte	0x14
	.byte	0x80
	.long	0x2098
	.uleb128 0x11
	.byte	0x14
	.byte	0x86
	.long	0x20f9
	.uleb128 0x11
	.byte	0x14
	.byte	0x89
	.long	0x2116
	.uleb128 0x11
	.byte	0x14
	.byte	0x8c
	.long	0x2130
	.uleb128 0x11
	.byte	0x14
	.byte	0x8d
	.long	0x2145
	.uleb128 0x11
	.byte	0x14
	.byte	0x8e
	.long	0x215a
	.uleb128 0x11
	.byte	0x14
	.byte	0x8f
	.long	0x216f
	.uleb128 0x11
	.byte	0x14
	.byte	0x91
	.long	0x2199
	.uleb128 0x11
	.byte	0x14
	.byte	0x94
	.long	0x21b4
	.uleb128 0x11
	.byte	0x14
	.byte	0x96
	.long	0x21ca
	.uleb128 0x11
	.byte	0x14
	.byte	0x99
	.long	0x21e5
	.uleb128 0x11
	.byte	0x14
	.byte	0x9a
	.long	0x2200
	.uleb128 0x11
	.byte	0x14
	.byte	0x9b
	.long	0x2220
	.uleb128 0x11
	.byte	0x14
	.byte	0x9d
	.long	0x2240
	.uleb128 0x11
	.byte	0x14
	.byte	0xa0
	.long	0x2261
	.uleb128 0x11
	.byte	0x14
	.byte	0xa3
	.long	0x2273
	.uleb128 0x11
	.byte	0x14
	.byte	0xa5
	.long	0x227f
	.uleb128 0x11
	.byte	0x14
	.byte	0xa6
	.long	0x2291
	.uleb128 0x11
	.byte	0x14
	.byte	0xa7
	.long	0x22ab
	.uleb128 0x11
	.byte	0x14
	.byte	0xa8
	.long	0x22ca
	.uleb128 0x11
	.byte	0x14
	.byte	0xa9
	.long	0x22e9
	.uleb128 0x11
	.byte	0x14
	.byte	0xab
	.long	0x22ff
	.uleb128 0x11
	.byte	0x14
	.byte	0xac
	.long	0x231f
	.uleb128 0x11
	.byte	0x14
	.byte	0xf0
	.long	0x20c8
	.uleb128 0x11
	.byte	0x14
	.byte	0xf5
	.long	0x10a5
	.uleb128 0x11
	.byte	0x14
	.byte	0xf6
	.long	0x233a
	.uleb128 0x11
	.byte	0x14
	.byte	0xf8
	.long	0x2355
	.uleb128 0x11
	.byte	0x14
	.byte	0xf9
	.long	0x23a8
	.uleb128 0x11
	.byte	0x14
	.byte	0xfa
	.long	0x236a
	.uleb128 0x11
	.byte	0x14
	.byte	0xfb
	.long	0x2389
	.uleb128 0x11
	.byte	0x14
	.byte	0xfc
	.long	0x23c2
	.uleb128 0x11
	.byte	0x15
	.byte	0x62
	.long	0x14f3
	.uleb128 0x11
	.byte	0x15
	.byte	0x63
	.long	0x249f
	.uleb128 0x11
	.byte	0x15
	.byte	0x65
	.long	0x2507
	.uleb128 0x11
	.byte	0x15
	.byte	0x66
	.long	0x251f
	.uleb128 0x11
	.byte	0x15
	.byte	0x67
	.long	0x2534
	.uleb128 0x11
	.byte	0x15
	.byte	0x68
	.long	0x254a
	.uleb128 0x11
	.byte	0x15
	.byte	0x69
	.long	0x2560
	.uleb128 0x11
	.byte	0x15
	.byte	0x6a
	.long	0x2575
	.uleb128 0x11
	.byte	0x15
	.byte	0x6b
	.long	0x258b
	.uleb128 0x11
	.byte	0x15
	.byte	0x6c
	.long	0x25ac
	.uleb128 0x11
	.byte	0x15
	.byte	0x6d
	.long	0x25cc
	.uleb128 0x11
	.byte	0x15
	.byte	0x71
	.long	0x25e6
	.uleb128 0x11
	.byte	0x15
	.byte	0x72
	.long	0x260b
	.uleb128 0x11
	.byte	0x15
	.byte	0x74
	.long	0x262a
	.uleb128 0x11
	.byte	0x15
	.byte	0x75
	.long	0x264a
	.uleb128 0x11
	.byte	0x15
	.byte	0x76
	.long	0x266b
	.uleb128 0x11
	.byte	0x15
	.byte	0x78
	.long	0x2681
	.uleb128 0x11
	.byte	0x15
	.byte	0x79
	.long	0x2697
	.uleb128 0x11
	.byte	0x15
	.byte	0x7e
	.long	0x26a3
	.uleb128 0x11
	.byte	0x15
	.byte	0x83
	.long	0x26b5
	.uleb128 0x11
	.byte	0x15
	.byte	0x84
	.long	0x26ca
	.uleb128 0x11
	.byte	0x15
	.byte	0x85
	.long	0x26e4
	.uleb128 0x11
	.byte	0x15
	.byte	0x87
	.long	0x26f6
	.uleb128 0x11
	.byte	0x15
	.byte	0x88
	.long	0x270d
	.uleb128 0x11
	.byte	0x15
	.byte	0x8b
	.long	0x2732
	.uleb128 0x11
	.byte	0x15
	.byte	0x8d
	.long	0x273d
	.uleb128 0x11
	.byte	0x15
	.byte	0x8f
	.long	0x2752
	.uleb128 0x2f
	.long	.LASF131
	.byte	0x16
	.value	0x1a0a
	.long	0xe20
	.uleb128 0x25
	.long	.LASF132
	.byte	0x16
	.value	0x1a0c
	.uleb128 0x30
	.byte	0x16
	.value	0x1a0d
	.long	0xe0f
	.byte	0
	.uleb128 0x30
	.byte	0x16
	.value	0x1a0b
	.long	0xe03
	.uleb128 0x31
	.string	"_V2"
	.byte	0x17
	.byte	0x47
	.uleb128 0x10
	.byte	0x17
	.byte	0x47
	.long	0xe28
	.uleb128 0x32
	.long	.LASF138
	.long	0xe9a
	.uleb128 0x33
	.long	.LASF133
	.byte	0x1
	.byte	0x18
	.value	0x259
	.byte	0x1
	.uleb128 0x34
	.long	.LASF134
	.byte	0x18
	.value	0x261
	.long	0x2031
	.uleb128 0x34
	.long	.LASF135
	.byte	0x18
	.value	0x262
	.long	0x1cbe
	.uleb128 0x35
	.long	.LASF133
	.byte	0x18
	.value	0x25d
	.long	.LASF503
	.byte	0x1
	.long	0xe76
	.long	0xe7c
	.uleb128 0x14
	.long	0x2783
	.byte	0
	.uleb128 0x36
	.long	.LASF136
	.byte	0x18
	.value	0x25e
	.long	.LASF137
	.byte	0x1
	.long	0xe8d
	.uleb128 0x14
	.long	0x2783
	.uleb128 0x14
	.long	0x9d
	.byte	0
	.byte	0
	.byte	0
	.uleb128 0x11
	.byte	0x19
	.byte	0x52
	.long	0x2794
	.uleb128 0x11
	.byte	0x19
	.byte	0x53
	.long	0x2789
	.uleb128 0x11
	.byte	0x19
	.byte	0x54
	.long	0x12ee
	.uleb128 0x11
	.byte	0x19
	.byte	0x5c
	.long	0x27a5
	.uleb128 0x11
	.byte	0x19
	.byte	0x65
	.long	0x27bf
	.uleb128 0x11
	.byte	0x19
	.byte	0x68
	.long	0x27d9
	.uleb128 0x11
	.byte	0x19
	.byte	0x69
	.long	0x27ee
	.uleb128 0x32
	.long	.LASF139
	.long	0xee7
	.uleb128 0x37
	.long	.LASF140
	.long	0x120
	.uleb128 0x38
	.long	.LASF142
	.long	0x7db
	.byte	0
	.uleb128 0x32
	.long	.LASF141
	.long	0xf03
	.uleb128 0x37
	.long	.LASF140
	.long	0x1561
	.uleb128 0x38
	.long	.LASF142
	.long	0x9b4
	.byte	0
	.uleb128 0x32
	.long	.LASF143
	.long	0xf1f
	.uleb128 0x37
	.long	.LASF140
	.long	0x120
	.uleb128 0x38
	.long	.LASF142
	.long	0x7db
	.byte	0
	.uleb128 0x32
	.long	.LASF144
	.long	0xf3b
	.uleb128 0x37
	.long	.LASF140
	.long	0x1561
	.uleb128 0x38
	.long	.LASF142
	.long	0x9b4
	.byte	0
	.uleb128 0x4
	.long	.LASF145
	.byte	0x1a
	.byte	0x8a
	.long	0xf03
	.uleb128 0x39
	.string	"cin"
	.byte	0x2
	.byte	0x3c
	.long	.LASF504
	.long	0xf3b
	.uleb128 0x4
	.long	.LASF146
	.byte	0x1a
	.byte	0x8d
	.long	0xecb
	.uleb128 0x15
	.long	.LASF147
	.byte	0x2
	.byte	0x3d
	.long	.LASF149
	.long	0xf55
	.uleb128 0x15
	.long	.LASF150
	.byte	0x2
	.byte	0x3e
	.long	.LASF151
	.long	0xf55
	.uleb128 0x15
	.long	.LASF152
	.byte	0x2
	.byte	0x3f
	.long	.LASF153
	.long	0xf55
	.uleb128 0x4
	.long	.LASF154
	.byte	0x1a
	.byte	0xb2
	.long	0xf1f
	.uleb128 0x15
	.long	.LASF155
	.byte	0x2
	.byte	0x42
	.long	.LASF156
	.long	0xf8d
	.uleb128 0x4
	.long	.LASF157
	.byte	0x1a
	.byte	0xb5
	.long	0xee7
	.uleb128 0x15
	.long	.LASF158
	.byte	0x2
	.byte	0x43
	.long	.LASF159
	.long	0xfa7
	.uleb128 0x15
	.long	.LASF160
	.byte	0x2
	.byte	0x44
	.long	.LASF161
	.long	0xfa7
	.uleb128 0x15
	.long	.LASF162
	.byte	0x2
	.byte	0x45
	.long	.LASF163
	.long	0xfa7
	.uleb128 0x3a
	.long	.LASF457
	.byte	0x2
	.byte	0x4a
	.long	0xe3f
	.byte	0
	.uleb128 0x16
	.long	.LASF164
	.byte	0xc
	.byte	0xff
	.long	0x128e
	.uleb128 0x25
	.long	.LASF76
	.byte	0xc
	.value	0x101
	.uleb128 0x30
	.byte	0xc
	.value	0x101
	.long	0xff6
	.uleb128 0x11
	.byte	0x9
	.byte	0xf8
	.long	0x1c2c
	.uleb128 0x12
	.byte	0x9
	.value	0x101
	.long	0x1c47
	.uleb128 0x12
	.byte	0x9
	.value	0x102
	.long	0x1c6e
	.uleb128 0xf
	.long	.LASF165
	.byte	0x1b
	.byte	0x23
	.uleb128 0x11
	.byte	0x1c
	.byte	0x2c
	.long	0x9a9
	.uleb128 0x11
	.byte	0x1c
	.byte	0x2d
	.long	0xc5b
	.uleb128 0x8
	.long	.LASF166
	.byte	0x1
	.byte	0x1d
	.byte	0x37
	.long	0x1074
	.uleb128 0x3b
	.long	.LASF167
	.byte	0x1d
	.byte	0x3a
	.long	0xa4
	.uleb128 0x3b
	.long	.LASF168
	.byte	0x1d
	.byte	0x3b
	.long	0xa4
	.uleb128 0x3b
	.long	.LASF169
	.byte	0x1d
	.byte	0x3f
	.long	0x1cc5
	.uleb128 0x3b
	.long	.LASF170
	.byte	0x1d
	.byte	0x40
	.long	0xa4
	.uleb128 0x37
	.long	.LASF171
	.long	0x9d
	.byte	0
	.uleb128 0x11
	.byte	0x14
	.byte	0xc8
	.long	0x20c8
	.uleb128 0x11
	.byte	0x14
	.byte	0xd8
	.long	0x233a
	.uleb128 0x11
	.byte	0x14
	.byte	0xe3
	.long	0x2355
	.uleb128 0x11
	.byte	0x14
	.byte	0xe4
	.long	0x236a
	.uleb128 0x11
	.byte	0x14
	.byte	0xe5
	.long	0x2389
	.uleb128 0x11
	.byte	0x14
	.byte	0xe7
	.long	0x23a8
	.uleb128 0x11
	.byte	0x14
	.byte	0xe8
	.long	0x23c2
	.uleb128 0x3c
	.string	"div"
	.byte	0x14
	.byte	0xd5
	.long	.LASF505
	.long	0x20c8
	.long	0x10c3
	.uleb128 0x19
	.long	0x1c67
	.uleb128 0x19
	.long	0x1c67
	.byte	0
	.uleb128 0x8
	.long	.LASF172
	.byte	0x1
	.byte	0x1d
	.byte	0x64
	.long	0x1105
	.uleb128 0x3b
	.long	.LASF173
	.byte	0x1d
	.byte	0x67
	.long	0xa4
	.uleb128 0x3b
	.long	.LASF169
	.byte	0x1d
	.byte	0x6a
	.long	0x1cc5
	.uleb128 0x3b
	.long	.LASF174
	.byte	0x1d
	.byte	0x6b
	.long	0xa4
	.uleb128 0x3b
	.long	.LASF175
	.byte	0x1d
	.byte	0x6c
	.long	0xa4
	.uleb128 0x37
	.long	.LASF171
	.long	0x129c
	.byte	0
	.uleb128 0x8
	.long	.LASF176
	.byte	0x1
	.byte	0x1d
	.byte	0x64
	.long	0x1147
	.uleb128 0x3b
	.long	.LASF173
	.byte	0x1d
	.byte	0x67
	.long	0xa4
	.uleb128 0x3b
	.long	.LASF169
	.byte	0x1d
	.byte	0x6a
	.long	0x1cc5
	.uleb128 0x3b
	.long	.LASF174
	.byte	0x1d
	.byte	0x6b
	.long	0xa4
	.uleb128 0x3b
	.long	.LASF175
	.byte	0x1d
	.byte	0x6c
	.long	0xa4
	.uleb128 0x37
	.long	.LASF171
	.long	0x12a3
	.byte	0
	.uleb128 0x8
	.long	.LASF177
	.byte	0x1
	.byte	0x1d
	.byte	0x64
	.long	0x1189
	.uleb128 0x3b
	.long	.LASF173
	.byte	0x1d
	.byte	0x67
	.long	0xa4
	.uleb128 0x3b
	.long	.LASF169
	.byte	0x1d
	.byte	0x6a
	.long	0x1cc5
	.uleb128 0x3b
	.long	.LASF174
	.byte	0x1d
	.byte	0x6b
	.long	0xa4
	.uleb128 0x3b
	.long	.LASF175
	.byte	0x1d
	.byte	0x6c
	.long	0xa4
	.uleb128 0x37
	.long	.LASF171
	.long	0x12aa
	.byte	0
	.uleb128 0x8
	.long	.LASF178
	.byte	0x1
	.byte	0x1d
	.byte	0x37
	.long	0x11cb
	.uleb128 0x3b
	.long	.LASF167
	.byte	0x1d
	.byte	0x3a
	.long	0x49
	.uleb128 0x3b
	.long	.LASF168
	.byte	0x1d
	.byte	0x3b
	.long	0x49
	.uleb128 0x3b
	.long	.LASF169
	.byte	0x1d
	.byte	0x3f
	.long	0x1cc5
	.uleb128 0x3b
	.long	.LASF170
	.byte	0x1d
	.byte	0x40
	.long	0xa4
	.uleb128 0x37
	.long	.LASF171
	.long	0x42
	.byte	0
	.uleb128 0x8
	.long	.LASF179
	.byte	0x1
	.byte	0x1d
	.byte	0x37
	.long	0x120d
	.uleb128 0x3b
	.long	.LASF167
	.byte	0x1d
	.byte	0x3a
	.long	0x127
	.uleb128 0x3b
	.long	.LASF168
	.byte	0x1d
	.byte	0x3b
	.long	0x127
	.uleb128 0x3b
	.long	.LASF169
	.byte	0x1d
	.byte	0x3f
	.long	0x1cc5
	.uleb128 0x3b
	.long	.LASF170
	.byte	0x1d
	.byte	0x40
	.long	0xa4
	.uleb128 0x37
	.long	.LASF171
	.long	0x120
	.byte	0
	.uleb128 0x8
	.long	.LASF180
	.byte	0x1
	.byte	0x1d
	.byte	0x37
	.long	0x124f
	.uleb128 0x3b
	.long	.LASF167
	.byte	0x1d
	.byte	0x3a
	.long	0x7d
	.uleb128 0x3b
	.long	.LASF168
	.byte	0x1d
	.byte	0x3b
	.long	0x7d
	.uleb128 0x3b
	.long	.LASF169
	.byte	0x1d
	.byte	0x3f
	.long	0x1cc5
	.uleb128 0x3b
	.long	.LASF170
	.byte	0x1d
	.byte	0x40
	.long	0xa4
	.uleb128 0x37
	.long	.LASF171
	.long	0x76
	.byte	0
	.uleb128 0x3d
	.long	.LASF506
	.byte	0x1
	.byte	0x1d
	.byte	0x37
	.uleb128 0x3b
	.long	.LASF167
	.byte	0x1d
	.byte	0x3a
	.long	0xc6
	.uleb128 0x3b
	.long	.LASF168
	.byte	0x1d
	.byte	0x3b
	.long	0xc6
	.uleb128 0x3b
	.long	.LASF169
	.byte	0x1d
	.byte	0x3f
	.long	0x1cc5
	.uleb128 0x3b
	.long	.LASF170
	.byte	0x1d
	.byte	0x40
	.long	0xa4
	.uleb128 0x37
	.long	.LASF171
	.long	0xbf
	.byte	0
	.byte	0
	.uleb128 0x2
	.byte	0x20
	.byte	0x3
	.long	.LASF181
	.uleb128 0x2
	.byte	0x10
	.byte	0x4
	.long	.LASF182
	.uleb128 0x2
	.byte	0x4
	.byte	0x4
	.long	.LASF183
	.uleb128 0x2
	.byte	0x8
	.byte	0x4
	.long	.LASF184
	.uleb128 0x2
	.byte	0x10
	.byte	0x4
	.long	.LASF185
	.uleb128 0x8
	.long	.LASF186
	.byte	0x18
	.byte	0x1e
	.byte	0
	.long	0x12ee
	.uleb128 0x9
	.long	.LASF187
	.byte	0x1e
	.byte	0
	.long	0x3b
	.byte	0
	.uleb128 0x9
	.long	.LASF188
	.byte	0x1e
	.byte	0
	.long	0x3b
	.byte	0x4
	.uleb128 0x9
	.long	.LASF189
	.byte	0x1e
	.byte	0
	.long	0x118
	.byte	0x8
	.uleb128 0x9
	.long	.LASF190
	.byte	0x1e
	.byte	0
	.long	0x118
	.byte	0x10
	.byte	0
	.uleb128 0x4
	.long	.LASF191
	.byte	0x1f
	.byte	0x14
	.long	0x3b
	.uleb128 0x3e
	.byte	0x8
	.byte	0x20
	.byte	0xe
	.long	.LASF369
	.long	0x133d
	.uleb128 0x3f
	.byte	0x4
	.byte	0x20
	.byte	0x11
	.long	0x1324
	.uleb128 0x40
	.long	.LASF192
	.byte	0x20
	.byte	0x12
	.long	0x3b
	.uleb128 0x40
	.long	.LASF193
	.byte	0x20
	.byte	0x13
	.long	0x133d
	.byte	0
	.uleb128 0x9
	.long	.LASF194
	.byte	0x20
	.byte	0xf
	.long	0x9d
	.byte	0
	.uleb128 0x9
	.long	.LASF81
	.byte	0x20
	.byte	0x14
	.long	0x1305
	.byte	0x4
	.byte	0
	.uleb128 0x41
	.long	0x120
	.long	0x134d
	.uleb128 0x42
	.long	0x42
	.byte	0x3
	.byte	0
	.uleb128 0x4
	.long	.LASF195
	.byte	0x20
	.byte	0x15
	.long	0x12f9
	.uleb128 0x4
	.long	.LASF196
	.byte	0x21
	.byte	0x6
	.long	0x134d
	.uleb128 0x3
	.long	0x1358
	.uleb128 0x4
	.long	.LASF197
	.byte	0x22
	.byte	0x5
	.long	0x1373
	.uleb128 0x8
	.long	.LASF198
	.byte	0xd8
	.byte	0x23
	.byte	0xf5
	.long	0x14f3
	.uleb128 0x9
	.long	.LASF199
	.byte	0x23
	.byte	0xf6
	.long	0x9d
	.byte	0
	.uleb128 0x9
	.long	.LASF200
	.byte	0x23
	.byte	0xfb
	.long	0x11a
	.byte	0x8
	.uleb128 0x9
	.long	.LASF201
	.byte	0x23
	.byte	0xfc
	.long	0x11a
	.byte	0x10
	.uleb128 0x9
	.long	.LASF202
	.byte	0x23
	.byte	0xfd
	.long	0x11a
	.byte	0x18
	.uleb128 0x9
	.long	.LASF203
	.byte	0x23
	.byte	0xfe
	.long	0x11a
	.byte	0x20
	.uleb128 0x9
	.long	.LASF204
	.byte	0x23
	.byte	0xff
	.long	0x11a
	.byte	0x28
	.uleb128 0x43
	.long	.LASF205
	.byte	0x23
	.value	0x100
	.long	0x11a
	.byte	0x30
	.uleb128 0x43
	.long	.LASF206
	.byte	0x23
	.value	0x101
	.long	0x11a
	.byte	0x38
	.uleb128 0x43
	.long	.LASF207
	.byte	0x23
	.value	0x102
	.long	0x11a
	.byte	0x40
	.uleb128 0x43
	.long	.LASF208
	.byte	0x23
	.value	0x104
	.long	0x11a
	.byte	0x48
	.uleb128 0x43
	.long	.LASF209
	.byte	0x23
	.value	0x105
	.long	0x11a
	.byte	0x50
	.uleb128 0x43
	.long	.LASF210
	.byte	0x23
	.value	0x106
	.long	0x11a
	.byte	0x58
	.uleb128 0x43
	.long	.LASF211
	.byte	0x23
	.value	0x108
	.long	0x2444
	.byte	0x60
	.uleb128 0x43
	.long	.LASF212
	.byte	0x23
	.value	0x10a
	.long	0x244a
	.byte	0x68
	.uleb128 0x43
	.long	.LASF213
	.byte	0x23
	.value	0x10c
	.long	0x9d
	.byte	0x70
	.uleb128 0x43
	.long	.LASF214
	.byte	0x23
	.value	0x110
	.long	0x9d
	.byte	0x74
	.uleb128 0x43
	.long	.LASF215
	.byte	0x23
	.value	0x112
	.long	0xec
	.byte	0x78
	.uleb128 0x43
	.long	.LASF216
	.byte	0x23
	.value	0x116
	.long	0x34
	.byte	0x80
	.uleb128 0x43
	.long	.LASF217
	.byte	0x23
	.value	0x117
	.long	0x59
	.byte	0x82
	.uleb128 0x43
	.long	.LASF218
	.byte	0x23
	.value	0x118
	.long	0x2450
	.byte	0x83
	.uleb128 0x43
	.long	.LASF219
	.byte	0x23
	.value	0x11c
	.long	0x2460
	.byte	0x88
	.uleb128 0x43
	.long	.LASF220
	.byte	0x23
	.value	0x125
	.long	0xf7
	.byte	0x90
	.uleb128 0x43
	.long	.LASF221
	.byte	0x23
	.value	0x12d
	.long	0x118
	.byte	0x98
	.uleb128 0x43
	.long	.LASF222
	.byte	0x23
	.value	0x12e
	.long	0x118
	.byte	0xa0
	.uleb128 0x43
	.long	.LASF223
	.byte	0x23
	.value	0x12f
	.long	0x118
	.byte	0xa8
	.uleb128 0x43
	.long	.LASF224
	.byte	0x23
	.value	0x130
	.long	0x118
	.byte	0xb0
	.uleb128 0x43
	.long	.LASF225
	.byte	0x23
	.value	0x132
	.long	0x18c
	.byte	0xb8
	.uleb128 0x43
	.long	.LASF226
	.byte	0x23
	.value	0x133
	.long	0x9d
	.byte	0xc0
	.uleb128 0x43
	.long	.LASF227
	.byte	0x23
	.value	0x135
	.long	0x2466
	.byte	0xc4
	.byte	0
	.uleb128 0x4
	.long	.LASF228
	.byte	0x24
	.byte	0x7
	.long	0x1373
	.uleb128 0x7
	.byte	0x8
	.long	0x127
	.uleb128 0x3
	.long	0x14fe
	.uleb128 0x44
	.long	.LASF229
	.byte	0x25
	.value	0x11c
	.long	0x12ee
	.long	0x151f
	.uleb128 0x19
	.long	0x9d
	.byte	0
	.uleb128 0x44
	.long	.LASF230
	.byte	0x25
	.value	0x2d7
	.long	0x12ee
	.long	0x1535
	.uleb128 0x19
	.long	0x1535
	.byte	0
	.uleb128 0x7
	.byte	0x8
	.long	0x1368
	.uleb128 0x44
	.long	.LASF231
	.byte	0x25
	.value	0x2f4
	.long	0x155b
	.long	0x155b
	.uleb128 0x19
	.long	0x155b
	.uleb128 0x19
	.long	0x9d
	.uleb128 0x19
	.long	0x1535
	.byte	0
	.uleb128 0x7
	.byte	0x8
	.long	0x1561
	.uleb128 0x2
	.byte	0x4
	.byte	0x5
	.long	.LASF232
	.uleb128 0x3
	.long	0x1561
	.uleb128 0x44
	.long	.LASF233
	.byte	0x25
	.value	0x2e5
	.long	0x12ee
	.long	0x1588
	.uleb128 0x19
	.long	0x1561
	.uleb128 0x19
	.long	0x1535
	.byte	0
	.uleb128 0x44
	.long	.LASF234
	.byte	0x25
	.value	0x2fb
	.long	0x9d
	.long	0x15a3
	.uleb128 0x19
	.long	0x15a3
	.uleb128 0x19
	.long	0x1535
	.byte	0
	.uleb128 0x7
	.byte	0x8
	.long	0x1568
	.uleb128 0x44
	.long	.LASF235
	.byte	0x25
	.value	0x23d
	.long	0x9d
	.long	0x15c4
	.uleb128 0x19
	.long	0x1535
	.uleb128 0x19
	.long	0x9d
	.byte	0
	.uleb128 0x44
	.long	.LASF236
	.byte	0x25
	.value	0x244
	.long	0x9d
	.long	0x15e0
	.uleb128 0x19
	.long	0x1535
	.uleb128 0x19
	.long	0x15a3
	.uleb128 0x45
	.byte	0
	.uleb128 0x44
	.long	.LASF237
	.byte	0x25
	.value	0x26d
	.long	0x9d
	.long	0x15fc
	.uleb128 0x19
	.long	0x1535
	.uleb128 0x19
	.long	0x15a3
	.uleb128 0x45
	.byte	0
	.uleb128 0x44
	.long	.LASF238
	.byte	0x25
	.value	0x2d8
	.long	0x12ee
	.long	0x1612
	.uleb128 0x19
	.long	0x1535
	.byte	0
	.uleb128 0x46
	.long	.LASF360
	.byte	0x25
	.value	0x2de
	.long	0x12ee
	.uleb128 0x44
	.long	.LASF239
	.byte	0x25
	.value	0x133
	.long	0x18c
	.long	0x163e
	.uleb128 0x19
	.long	0x14fe
	.uleb128 0x19
	.long	0x18c
	.uleb128 0x19
	.long	0x163e
	.byte	0
	.uleb128 0x7
	.byte	0x8
	.long	0x1358
	.uleb128 0x44
	.long	.LASF240
	.byte	0x25
	.value	0x128
	.long	0x18c
	.long	0x1669
	.uleb128 0x19
	.long	0x155b
	.uleb128 0x19
	.long	0x14fe
	.uleb128 0x19
	.long	0x18c
	.uleb128 0x19
	.long	0x163e
	.byte	0
	.uleb128 0x44
	.long	.LASF241
	.byte	0x25
	.value	0x124
	.long	0x9d
	.long	0x167f
	.uleb128 0x19
	.long	0x167f
	.byte	0
	.uleb128 0x7
	.byte	0x8
	.long	0x1363
	.uleb128 0x44
	.long	.LASF242
	.byte	0x25
	.value	0x151
	.long	0x18c
	.long	0x16aa
	.uleb128 0x19
	.long	0x155b
	.uleb128 0x19
	.long	0x16aa
	.uleb128 0x19
	.long	0x18c
	.uleb128 0x19
	.long	0x163e
	.byte	0
	.uleb128 0x7
	.byte	0x8
	.long	0x14fe
	.uleb128 0x44
	.long	.LASF243
	.byte	0x25
	.value	0x2e6
	.long	0x12ee
	.long	0x16cb
	.uleb128 0x19
	.long	0x1561
	.uleb128 0x19
	.long	0x1535
	.byte	0
	.uleb128 0x44
	.long	.LASF244
	.byte	0x25
	.value	0x2ec
	.long	0x12ee
	.long	0x16e1
	.uleb128 0x19
	.long	0x1561
	.byte	0
	.uleb128 0x44
	.long	.LASF245
	.byte	0x25
	.value	0x24e
	.long	0x9d
	.long	0x1702
	.uleb128 0x19
	.long	0x155b
	.uleb128 0x19
	.long	0x18c
	.uleb128 0x19
	.long	0x15a3
	.uleb128 0x45
	.byte	0
	.uleb128 0x44
	.long	.LASF246
	.byte	0x25
	.value	0x277
	.long	0x9d
	.long	0x171e
	.uleb128 0x19
	.long	0x15a3
	.uleb128 0x19
	.long	0x15a3
	.uleb128 0x45
	.byte	0
	.uleb128 0x44
	.long	.LASF247
	.byte	0x25
	.value	0x303
	.long	0x12ee
	.long	0x1739
	.uleb128 0x19
	.long	0x12ee
	.uleb128 0x19
	.long	0x1535
	.byte	0
	.uleb128 0x44
	.long	.LASF248
	.byte	0x25
	.value	0x256
	.long	0x9d
	.long	0x1759
	.uleb128 0x19
	.long	0x1535
	.uleb128 0x19
	.long	0x15a3
	.uleb128 0x19
	.long	0x1759
	.byte	0
	.uleb128 0x7
	.byte	0x8
	.long	0x12b1
	.uleb128 0x44
	.long	.LASF249
	.byte	0x25
	.value	0x2a1
	.long	0x9d
	.long	0x177f
	.uleb128 0x19
	.long	0x1535
	.uleb128 0x19
	.long	0x15a3
	.uleb128 0x19
	.long	0x1759
	.byte	0
	.uleb128 0x44
	.long	.LASF250
	.byte	0x25
	.value	0x263
	.long	0x9d
	.long	0x17a4
	.uleb128 0x19
	.long	0x155b
	.uleb128 0x19
	.long	0x18c
	.uleb128 0x19
	.long	0x15a3
	.uleb128 0x19
	.long	0x1759
	.byte	0
	.uleb128 0x44
	.long	.LASF251
	.byte	0x25
	.value	0x2ad
	.long	0x9d
	.long	0x17c4
	.uleb128 0x19
	.long	0x15a3
	.uleb128 0x19
	.long	0x15a3
	.uleb128 0x19
	.long	0x1759
	.byte	0
	.uleb128 0x44
	.long	.LASF252
	.byte	0x25
	.value	0x25e
	.long	0x9d
	.long	0x17df
	.uleb128 0x19
	.long	0x15a3
	.uleb128 0x19
	.long	0x1759
	.byte	0
	.uleb128 0x44
	.long	.LASF253
	.byte	0x25
	.value	0x2a9
	.long	0x9d
	.long	0x17fa
	.uleb128 0x19
	.long	0x15a3
	.uleb128 0x19
	.long	0x1759
	.byte	0
	.uleb128 0x44
	.long	.LASF254
	.byte	0x25
	.value	0x12d
	.long	0x18c
	.long	0x181a
	.uleb128 0x19
	.long	0x11a
	.uleb128 0x19
	.long	0x1561
	.uleb128 0x19
	.long	0x163e
	.byte	0
	.uleb128 0x47
	.long	.LASF255
	.byte	0x25
	.byte	0x61
	.long	0x155b
	.long	0x1834
	.uleb128 0x19
	.long	0x155b
	.uleb128 0x19
	.long	0x15a3
	.byte	0
	.uleb128 0x47
	.long	.LASF256
	.byte	0x25
	.byte	0x6a
	.long	0x9d
	.long	0x184e
	.uleb128 0x19
	.long	0x15a3
	.uleb128 0x19
	.long	0x15a3
	.byte	0
	.uleb128 0x47
	.long	.LASF257
	.byte	0x25
	.byte	0x83
	.long	0x9d
	.long	0x1868
	.uleb128 0x19
	.long	0x15a3
	.uleb128 0x19
	.long	0x15a3
	.byte	0
	.uleb128 0x47
	.long	.LASF258
	.byte	0x25
	.byte	0x57
	.long	0x155b
	.long	0x1882
	.uleb128 0x19
	.long	0x155b
	.uleb128 0x19
	.long	0x15a3
	.byte	0
	.uleb128 0x47
	.long	.LASF259
	.byte	0x25
	.byte	0xbb
	.long	0x18c
	.long	0x189c
	.uleb128 0x19
	.long	0x15a3
	.uleb128 0x19
	.long	0x15a3
	.byte	0
	.uleb128 0x44
	.long	.LASF260
	.byte	0x25
	.value	0x343
	.long	0x18c
	.long	0x18c1
	.uleb128 0x19
	.long	0x155b
	.uleb128 0x19
	.long	0x18c
	.uleb128 0x19
	.long	0x15a3
	.uleb128 0x19
	.long	0x18c1
	.byte	0
	.uleb128 0x7
	.byte	0x8
	.long	0x1957
	.uleb128 0x48
	.string	"tm"
	.byte	0x38
	.byte	0x26
	.byte	0x7
	.long	0x1957
	.uleb128 0x9
	.long	.LASF261
	.byte	0x26
	.byte	0x9
	.long	0x9d
	.byte	0
	.uleb128 0x9
	.long	.LASF262
	.byte	0x26
	.byte	0xa
	.long	0x9d
	.byte	0x4
	.uleb128 0x9
	.long	.LASF263
	.byte	0x26
	.byte	0xb
	.long	0x9d
	.byte	0x8
	.uleb128 0x9
	.long	.LASF264
	.byte	0x26
	.byte	0xc
	.long	0x9d
	.byte	0xc
	.uleb128 0x9
	.long	.LASF265
	.byte	0x26
	.byte	0xd
	.long	0x9d
	.byte	0x10
	.uleb128 0x9
	.long	.LASF266
	.byte	0x26
	.byte	0xe
	.long	0x9d
	.byte	0x14
	.uleb128 0x9
	.long	.LASF267
	.byte	0x26
	.byte	0xf
	.long	0x9d
	.byte	0x18
	.uleb128 0x9
	.long	.LASF268
	.byte	0x26
	.byte	0x10
	.long	0x9d
	.byte	0x1c
	.uleb128 0x9
	.long	.LASF269
	.byte	0x26
	.byte	0x11
	.long	0x9d
	.byte	0x20
	.uleb128 0x9
	.long	.LASF270
	.byte	0x26
	.byte	0x14
	.long	0xbf
	.byte	0x28
	.uleb128 0x9
	.long	.LASF271
	.byte	0x26
	.byte	0x15
	.long	0x14fe
	.byte	0x30
	.byte	0
	.uleb128 0x3
	.long	0x18c7
	.uleb128 0x47
	.long	.LASF272
	.byte	0x25
	.byte	0xde
	.long	0x18c
	.long	0x1971
	.uleb128 0x19
	.long	0x15a3
	.byte	0
	.uleb128 0x47
	.long	.LASF273
	.byte	0x25
	.byte	0x65
	.long	0x155b
	.long	0x1990
	.uleb128 0x19
	.long	0x155b
	.uleb128 0x19
	.long	0x15a3
	.uleb128 0x19
	.long	0x18c
	.byte	0
	.uleb128 0x47
	.long	.LASF274
	.byte	0x25
	.byte	0x6d
	.long	0x9d
	.long	0x19af
	.uleb128 0x19
	.long	0x15a3
	.uleb128 0x19
	.long	0x15a3
	.uleb128 0x19
	.long	0x18c
	.byte	0
	.uleb128 0x47
	.long	.LASF275
	.byte	0x25
	.byte	0x5c
	.long	0x155b
	.long	0x19ce
	.uleb128 0x19
	.long	0x155b
	.uleb128 0x19
	.long	0x15a3
	.uleb128 0x19
	.long	0x18c
	.byte	0
	.uleb128 0x44
	.long	.LASF276
	.byte	0x25
	.value	0x157
	.long	0x18c
	.long	0x19f3
	.uleb128 0x19
	.long	0x11a
	.uleb128 0x19
	.long	0x19f3
	.uleb128 0x19
	.long	0x18c
	.uleb128 0x19
	.long	0x163e
	.byte	0
	.uleb128 0x7
	.byte	0x8
	.long	0x15a3
	.uleb128 0x47
	.long	.LASF277
	.byte	0x25
	.byte	0xbf
	.long	0x18c
	.long	0x1a13
	.uleb128 0x19
	.long	0x15a3
	.uleb128 0x19
	.long	0x15a3
	.byte	0
	.uleb128 0x44
	.long	.LASF278
	.byte	0x25
	.value	0x179
	.long	0x12a3
	.long	0x1a2e
	.uleb128 0x19
	.long	0x15a3
	.uleb128 0x19
	.long	0x1a2e
	.byte	0
	.uleb128 0x7
	.byte	0x8
	.long	0x155b
	.uleb128 0x44
	.long	.LASF279
	.byte	0x25
	.value	0x17e
	.long	0x129c
	.long	0x1a4f
	.uleb128 0x19
	.long	0x15a3
	.uleb128 0x19
	.long	0x1a2e
	.byte	0
	.uleb128 0x47
	.long	.LASF280
	.byte	0x25
	.byte	0xd9
	.long	0x155b
	.long	0x1a6e
	.uleb128 0x19
	.long	0x155b
	.uleb128 0x19
	.long	0x15a3
	.uleb128 0x19
	.long	0x1a2e
	.byte	0
	.uleb128 0x44
	.long	.LASF281
	.byte	0x25
	.value	0x1ac
	.long	0xbf
	.long	0x1a8e
	.uleb128 0x19
	.long	0x15a3
	.uleb128 0x19
	.long	0x1a2e
	.uleb128 0x19
	.long	0x9d
	.byte	0
	.uleb128 0x44
	.long	.LASF282
	.byte	0x25
	.value	0x1b1
	.long	0x42
	.long	0x1aae
	.uleb128 0x19
	.long	0x15a3
	.uleb128 0x19
	.long	0x1a2e
	.uleb128 0x19
	.long	0x9d
	.byte	0
	.uleb128 0x47
	.long	.LASF283
	.byte	0x25
	.byte	0x87
	.long	0x18c
	.long	0x1acd
	.uleb128 0x19
	.long	0x155b
	.uleb128 0x19
	.long	0x15a3
	.uleb128 0x19
	.long	0x18c
	.byte	0
	.uleb128 0x44
	.long	.LASF284
	.byte	0x25
	.value	0x120
	.long	0x9d
	.long	0x1ae3
	.uleb128 0x19
	.long	0x12ee
	.byte	0
	.uleb128 0x44
	.long	.LASF285
	.byte	0x25
	.value	0x102
	.long	0x9d
	.long	0x1b03
	.uleb128 0x19
	.long	0x15a3
	.uleb128 0x19
	.long	0x15a3
	.uleb128 0x19
	.long	0x18c
	.byte	0
	.uleb128 0x44
	.long	.LASF286
	.byte	0x25
	.value	0x106
	.long	0x155b
	.long	0x1b23
	.uleb128 0x19
	.long	0x155b
	.uleb128 0x19
	.long	0x15a3
	.uleb128 0x19
	.long	0x18c
	.byte	0
	.uleb128 0x44
	.long	.LASF287
	.byte	0x25
	.value	0x10b
	.long	0x155b
	.long	0x1b43
	.uleb128 0x19
	.long	0x155b
	.uleb128 0x19
	.long	0x15a3
	.uleb128 0x19
	.long	0x18c
	.byte	0
	.uleb128 0x44
	.long	.LASF288
	.byte	0x25
	.value	0x10f
	.long	0x155b
	.long	0x1b63
	.uleb128 0x19
	.long	0x155b
	.uleb128 0x19
	.long	0x1561
	.uleb128 0x19
	.long	0x18c
	.byte	0
	.uleb128 0x44
	.long	.LASF289
	.byte	0x25
	.value	0x24b
	.long	0x9d
	.long	0x1b7a
	.uleb128 0x19
	.long	0x15a3
	.uleb128 0x45
	.byte	0
	.uleb128 0x44
	.long	.LASF290
	.byte	0x25
	.value	0x274
	.long	0x9d
	.long	0x1b91
	.uleb128 0x19
	.long	0x15a3
	.uleb128 0x45
	.byte	0
	.uleb128 0x49
	.long	.LASF291
	.byte	0x25
	.byte	0xa1
	.long	.LASF291
	.long	0x15a3
	.long	0x1baf
	.uleb128 0x19
	.long	0x15a3
	.uleb128 0x19
	.long	0x1561
	.byte	0
	.uleb128 0x49
	.long	.LASF292
	.byte	0x25
	.byte	0xc5
	.long	.LASF292
	.long	0x15a3
	.long	0x1bcd
	.uleb128 0x19
	.long	0x15a3
	.uleb128 0x19
	.long	0x15a3
	.byte	0
	.uleb128 0x49
	.long	.LASF293
	.byte	0x25
	.byte	0xab
	.long	.LASF293
	.long	0x15a3
	.long	0x1beb
	.uleb128 0x19
	.long	0x15a3
	.uleb128 0x19
	.long	0x1561
	.byte	0
	.uleb128 0x49
	.long	.LASF294
	.byte	0x25
	.byte	0xd0
	.long	.LASF294
	.long	0x15a3
	.long	0x1c09
	.uleb128 0x19
	.long	0x15a3
	.uleb128 0x19
	.long	0x15a3
	.byte	0
	.uleb128 0x49
	.long	.LASF295
	.byte	0x25
	.byte	0xf9
	.long	.LASF295
	.long	0x15a3
	.long	0x1c2c
	.uleb128 0x19
	.long	0x15a3
	.uleb128 0x19
	.long	0x1561
	.uleb128 0x19
	.long	0x18c
	.byte	0
	.uleb128 0x44
	.long	.LASF296
	.byte	0x25
	.value	0x180
	.long	0x12aa
	.long	0x1c47
	.uleb128 0x19
	.long	0x15a3
	.uleb128 0x19
	.long	0x1a2e
	.byte	0
	.uleb128 0x44
	.long	.LASF297
	.byte	0x25
	.value	0x1b9
	.long	0x1c67
	.long	0x1c67
	.uleb128 0x19
	.long	0x15a3
	.uleb128 0x19
	.long	0x1a2e
	.uleb128 0x19
	.long	0x9d
	.byte	0
	.uleb128 0x2
	.byte	0x8
	.byte	0x5
	.long	.LASF298
	.uleb128 0x44
	.long	.LASF299
	.byte	0x25
	.value	0x1c0
	.long	0x1c8e
	.long	0x1c8e
	.uleb128 0x19
	.long	0x15a3
	.uleb128 0x19
	.long	0x1a2e
	.uleb128 0x19
	.long	0x9d
	.byte	0
	.uleb128 0x2
	.byte	0x8
	.byte	0x7
	.long	.LASF300
	.uleb128 0x4a
	.long	.LASF507
	.uleb128 0x7
	.byte	0x8
	.long	0x3ec
	.uleb128 0x7
	.byte	0x8
	.long	0x42e
	.uleb128 0x7
	.byte	0x8
	.long	0x5e7
	.uleb128 0x4b
	.byte	0x8
	.long	0x5e7
	.uleb128 0x4c
	.byte	0x8
	.long	0x42e
	.uleb128 0x4b
	.byte	0x8
	.long	0x42e
	.uleb128 0x2
	.byte	0x1
	.byte	0x2
	.long	.LASF301
	.uleb128 0x3
	.long	0x1cbe
	.uleb128 0x7
	.byte	0x8
	.long	0x620
	.uleb128 0x7
	.byte	0x8
	.long	0x696
	.uleb128 0x7
	.byte	0x8
	.long	0x70c
	.uleb128 0x2
	.byte	0x10
	.byte	0x7
	.long	.LASF302
	.uleb128 0x2
	.byte	0x10
	.byte	0x5
	.long	.LASF303
	.uleb128 0x7
	.byte	0x8
	.long	0x79f
	.uleb128 0x4d
	.long	0x7c7
	.uleb128 0x16
	.long	.LASF304
	.byte	0x10
	.byte	0x38
	.long	0x1d08
	.uleb128 0x10
	.byte	0x10
	.byte	0x3a
	.long	0x7d4
	.byte	0
	.uleb128 0x4b
	.byte	0x8
	.long	0x7e8
	.uleb128 0x4b
	.byte	0x8
	.long	0x7f4
	.uleb128 0x7
	.byte	0x8
	.long	0x7f4
	.uleb128 0x7
	.byte	0x8
	.long	0x7e8
	.uleb128 0x4b
	.byte	0x8
	.long	0x805
	.uleb128 0x4b
	.byte	0x8
	.long	0x9c1
	.uleb128 0x4b
	.byte	0x8
	.long	0x9cd
	.uleb128 0x7
	.byte	0x8
	.long	0x9cd
	.uleb128 0x7
	.byte	0x8
	.long	0x9c1
	.uleb128 0x4b
	.byte	0x8
	.long	0x9de
	.uleb128 0x4
	.long	.LASF305
	.byte	0x27
	.byte	0x18
	.long	0x4e
	.uleb128 0x4
	.long	.LASF306
	.byte	0x27
	.byte	0x19
	.long	0x6b
	.uleb128 0x4
	.long	.LASF307
	.byte	0x27
	.byte	0x1a
	.long	0x8d
	.uleb128 0x4
	.long	.LASF308
	.byte	0x27
	.byte	0x1b
	.long	0xb4
	.uleb128 0x4
	.long	.LASF309
	.byte	0x28
	.byte	0x18
	.long	0x60
	.uleb128 0x4
	.long	.LASF310
	.byte	0x28
	.byte	0x19
	.long	0x82
	.uleb128 0x4
	.long	.LASF311
	.byte	0x28
	.byte	0x1a
	.long	0xa9
	.uleb128 0x4
	.long	.LASF312
	.byte	0x28
	.byte	0x1b
	.long	0xcb
	.uleb128 0x4
	.long	.LASF313
	.byte	0x29
	.byte	0x2b
	.long	0x59
	.uleb128 0x4
	.long	.LASF314
	.byte	0x29
	.byte	0x2c
	.long	0x76
	.uleb128 0x4
	.long	.LASF315
	.byte	0x29
	.byte	0x2d
	.long	0x9d
	.uleb128 0x4
	.long	.LASF316
	.byte	0x29
	.byte	0x2f
	.long	0xbf
	.uleb128 0x4
	.long	.LASF317
	.byte	0x29
	.byte	0x36
	.long	0x2d
	.uleb128 0x4
	.long	.LASF318
	.byte	0x29
	.byte	0x37
	.long	0x34
	.uleb128 0x4
	.long	.LASF319
	.byte	0x29
	.byte	0x38
	.long	0x3b
	.uleb128 0x4
	.long	.LASF320
	.byte	0x29
	.byte	0x3a
	.long	0x42
	.uleb128 0x4
	.long	.LASF321
	.byte	0x29
	.byte	0x44
	.long	0x59
	.uleb128 0x4
	.long	.LASF322
	.byte	0x29
	.byte	0x46
	.long	0xbf
	.uleb128 0x4
	.long	.LASF323
	.byte	0x29
	.byte	0x47
	.long	0xbf
	.uleb128 0x4
	.long	.LASF324
	.byte	0x29
	.byte	0x48
	.long	0xbf
	.uleb128 0x4
	.long	.LASF325
	.byte	0x29
	.byte	0x51
	.long	0x2d
	.uleb128 0x4
	.long	.LASF326
	.byte	0x29
	.byte	0x53
	.long	0x42
	.uleb128 0x4
	.long	.LASF327
	.byte	0x29
	.byte	0x54
	.long	0x42
	.uleb128 0x4
	.long	.LASF328
	.byte	0x29
	.byte	0x55
	.long	0x42
	.uleb128 0x4
	.long	.LASF329
	.byte	0x29
	.byte	0x64
	.long	0x42
	.uleb128 0x4
	.long	.LASF330
	.byte	0x29
	.byte	0x6f
	.long	0xd6
	.uleb128 0x4
	.long	.LASF331
	.byte	0x29
	.byte	0x70
	.long	0xe1
	.uleb128 0x2
	.byte	0x2
	.byte	0x10
	.long	.LASF332
	.uleb128 0x2
	.byte	0x4
	.byte	0x10
	.long	.LASF333
	.uleb128 0x8
	.long	.LASF334
	.byte	0x60
	.byte	0x2a
	.byte	0x33
	.long	0x1fa8
	.uleb128 0x9
	.long	.LASF335
	.byte	0x2a
	.byte	0x37
	.long	0x11a
	.byte	0
	.uleb128 0x9
	.long	.LASF336
	.byte	0x2a
	.byte	0x38
	.long	0x11a
	.byte	0x8
	.uleb128 0x9
	.long	.LASF337
	.byte	0x2a
	.byte	0x3e
	.long	0x11a
	.byte	0x10
	.uleb128 0x9
	.long	.LASF338
	.byte	0x2a
	.byte	0x44
	.long	0x11a
	.byte	0x18
	.uleb128 0x9
	.long	.LASF339
	.byte	0x2a
	.byte	0x45
	.long	0x11a
	.byte	0x20
	.uleb128 0x9
	.long	.LASF340
	.byte	0x2a
	.byte	0x46
	.long	0x11a
	.byte	0x28
	.uleb128 0x9
	.long	.LASF341
	.byte	0x2a
	.byte	0x47
	.long	0x11a
	.byte	0x30
	.uleb128 0x9
	.long	.LASF342
	.byte	0x2a
	.byte	0x48
	.long	0x11a
	.byte	0x38
	.uleb128 0x9
	.long	.LASF343
	.byte	0x2a
	.byte	0x49
	.long	0x11a
	.byte	0x40
	.uleb128 0x9
	.long	.LASF344
	.byte	0x2a
	.byte	0x4a
	.long	0x11a
	.byte	0x48
	.uleb128 0x9
	.long	.LASF345
	.byte	0x2a
	.byte	0x4b
	.long	0x120
	.byte	0x50
	.uleb128 0x9
	.long	.LASF346
	.byte	0x2a
	.byte	0x4c
	.long	0x120
	.byte	0x51
	.uleb128 0x9
	.long	.LASF347
	.byte	0x2a
	.byte	0x4e
	.long	0x120
	.byte	0x52
	.uleb128 0x9
	.long	.LASF348
	.byte	0x2a
	.byte	0x50
	.long	0x120
	.byte	0x53
	.uleb128 0x9
	.long	.LASF349
	.byte	0x2a
	.byte	0x52
	.long	0x120
	.byte	0x54
	.uleb128 0x9
	.long	.LASF350
	.byte	0x2a
	.byte	0x54
	.long	0x120
	.byte	0x55
	.uleb128 0x9
	.long	.LASF351
	.byte	0x2a
	.byte	0x5b
	.long	0x120
	.byte	0x56
	.uleb128 0x9
	.long	.LASF352
	.byte	0x2a
	.byte	0x5c
	.long	0x120
	.byte	0x57
	.uleb128 0x9
	.long	.LASF353
	.byte	0x2a
	.byte	0x5f
	.long	0x120
	.byte	0x58
	.uleb128 0x9
	.long	.LASF354
	.byte	0x2a
	.byte	0x61
	.long	0x120
	.byte	0x59
	.uleb128 0x9
	.long	.LASF355
	.byte	0x2a
	.byte	0x63
	.long	0x120
	.byte	0x5a
	.uleb128 0x9
	.long	.LASF356
	.byte	0x2a
	.byte	0x65
	.long	0x120
	.byte	0x5b
	.uleb128 0x9
	.long	.LASF357
	.byte	0x2a
	.byte	0x6c
	.long	0x120
	.byte	0x5c
	.uleb128 0x9
	.long	.LASF358
	.byte	0x2a
	.byte	0x6d
	.long	0x120
	.byte	0x5d
	.byte	0
	.uleb128 0x47
	.long	.LASF359
	.byte	0x2a
	.byte	0x7a
	.long	0x11a
	.long	0x1fc2
	.uleb128 0x19
	.long	0x9d
	.uleb128 0x19
	.long	0x14fe
	.byte	0
	.uleb128 0x4e
	.long	.LASF361
	.byte	0x2a
	.byte	0x7d
	.long	0x1fcd
	.uleb128 0x7
	.byte	0x8
	.long	0x1e7b
	.uleb128 0x41
	.long	0x11a
	.long	0x1fe3
	.uleb128 0x42
	.long	0x42
	.byte	0x1
	.byte	0
	.uleb128 0xd
	.long	.LASF362
	.byte	0x2b
	.byte	0x9f
	.long	0x1fd3
	.uleb128 0xd
	.long	.LASF363
	.byte	0x2b
	.byte	0xa0
	.long	0x9d
	.uleb128 0xd
	.long	.LASF364
	.byte	0x2b
	.byte	0xa1
	.long	0xbf
	.uleb128 0xd
	.long	.LASF365
	.byte	0x2b
	.byte	0xa6
	.long	0x1fd3
	.uleb128 0xd
	.long	.LASF366
	.byte	0x2b
	.byte	0xae
	.long	0x9d
	.uleb128 0xd
	.long	.LASF26
	.byte	0x2b
	.byte	0xaf
	.long	0xbf
	.uleb128 0xc
	.long	.LASF367
	.byte	0x2b
	.value	0x118
	.long	0x9d
	.uleb128 0x4
	.long	.LASF368
	.byte	0x2c
	.byte	0x20
	.long	0x9d
	.uleb128 0x7
	.byte	0x8
	.long	0x2042
	.uleb128 0x4f
	.uleb128 0x3e
	.byte	0x8
	.byte	0x2d
	.byte	0x3b
	.long	.LASF370
	.long	0x2068
	.uleb128 0x9
	.long	.LASF371
	.byte	0x2d
	.byte	0x3c
	.long	0x9d
	.byte	0
	.uleb128 0x50
	.string	"rem"
	.byte	0x2d
	.byte	0x3d
	.long	0x9d
	.byte	0x4
	.byte	0
	.uleb128 0x4
	.long	.LASF372
	.byte	0x2d
	.byte	0x3e
	.long	0x2043
	.uleb128 0x3e
	.byte	0x10
	.byte	0x2d
	.byte	0x43
	.long	.LASF373
	.long	0x2098
	.uleb128 0x9
	.long	.LASF371
	.byte	0x2d
	.byte	0x44
	.long	0xbf
	.byte	0
	.uleb128 0x50
	.string	"rem"
	.byte	0x2d
	.byte	0x45
	.long	0xbf
	.byte	0x8
	.byte	0
	.uleb128 0x4
	.long	.LASF374
	.byte	0x2d
	.byte	0x46
	.long	0x2073
	.uleb128 0x3e
	.byte	0x10
	.byte	0x2d
	.byte	0x4d
	.long	.LASF375
	.long	0x20c8
	.uleb128 0x9
	.long	.LASF371
	.byte	0x2d
	.byte	0x4e
	.long	0x1c67
	.byte	0
	.uleb128 0x50
	.string	"rem"
	.byte	0x2d
	.byte	0x4f
	.long	0x1c67
	.byte	0x8
	.byte	0
	.uleb128 0x4
	.long	.LASF376
	.byte	0x2d
	.byte	0x50
	.long	0x20a3
	.uleb128 0xb
	.long	.LASF377
	.byte	0x2d
	.value	0x325
	.long	0x20df
	.uleb128 0x7
	.byte	0x8
	.long	0x20e5
	.uleb128 0x51
	.long	0x9d
	.long	0x20f9
	.uleb128 0x19
	.long	0x203c
	.uleb128 0x19
	.long	0x203c
	.byte	0
	.uleb128 0x44
	.long	.LASF378
	.byte	0x2d
	.value	0x250
	.long	0x9d
	.long	0x210f
	.uleb128 0x19
	.long	0x210f
	.byte	0
	.uleb128 0x7
	.byte	0x8
	.long	0x2115
	.uleb128 0x52
	.uleb128 0x2c
	.long	.LASF379
	.byte	0x2d
	.value	0x255
	.long	.LASF379
	.long	0x9d
	.long	0x2130
	.uleb128 0x19
	.long	0x210f
	.byte	0
	.uleb128 0x47
	.long	.LASF380
	.byte	0x2d
	.byte	0x65
	.long	0x12a3
	.long	0x2145
	.uleb128 0x19
	.long	0x14fe
	.byte	0
	.uleb128 0x47
	.long	.LASF381
	.byte	0x2d
	.byte	0x68
	.long	0x9d
	.long	0x215a
	.uleb128 0x19
	.long	0x14fe
	.byte	0
	.uleb128 0x47
	.long	.LASF382
	.byte	0x2d
	.byte	0x6b
	.long	0xbf
	.long	0x216f
	.uleb128 0x19
	.long	0x14fe
	.byte	0
	.uleb128 0x44
	.long	.LASF383
	.byte	0x2d
	.value	0x331
	.long	0x118
	.long	0x2199
	.uleb128 0x19
	.long	0x203c
	.uleb128 0x19
	.long	0x203c
	.uleb128 0x19
	.long	0x18c
	.uleb128 0x19
	.long	0x18c
	.uleb128 0x19
	.long	0x20d3
	.byte	0
	.uleb128 0x53
	.string	"div"
	.byte	0x2d
	.value	0x351
	.long	0x2068
	.long	0x21b4
	.uleb128 0x19
	.long	0x9d
	.uleb128 0x19
	.long	0x9d
	.byte	0
	.uleb128 0x44
	.long	.LASF384
	.byte	0x2d
	.value	0x277
	.long	0x11a
	.long	0x21ca
	.uleb128 0x19
	.long	0x14fe
	.byte	0
	.uleb128 0x44
	.long	.LASF385
	.byte	0x2d
	.value	0x353
	.long	0x2098
	.long	0x21e5
	.uleb128 0x19
	.long	0xbf
	.uleb128 0x19
	.long	0xbf
	.byte	0
	.uleb128 0x44
	.long	.LASF386
	.byte	0x2d
	.value	0x397
	.long	0x9d
	.long	0x2200
	.uleb128 0x19
	.long	0x14fe
	.uleb128 0x19
	.long	0x18c
	.byte	0
	.uleb128 0x44
	.long	.LASF387
	.byte	0x2d
	.value	0x3a2
	.long	0x18c
	.long	0x2220
	.uleb128 0x19
	.long	0x155b
	.uleb128 0x19
	.long	0x14fe
	.uleb128 0x19
	.long	0x18c
	.byte	0
	.uleb128 0x44
	.long	.LASF388
	.byte	0x2d
	.value	0x39a
	.long	0x9d
	.long	0x2240
	.uleb128 0x19
	.long	0x155b
	.uleb128 0x19
	.long	0x14fe
	.uleb128 0x19
	.long	0x18c
	.byte	0
	.uleb128 0x54
	.long	.LASF391
	.byte	0x2d
	.value	0x33b
	.long	0x2261
	.uleb128 0x19
	.long	0x118
	.uleb128 0x19
	.long	0x18c
	.uleb128 0x19
	.long	0x18c
	.uleb128 0x19
	.long	0x20d3
	.byte	0
	.uleb128 0x55
	.long	.LASF389
	.byte	0x2d
	.value	0x26c
	.long	0x2273
	.uleb128 0x19
	.long	0x9d
	.byte	0
	.uleb128 0x46
	.long	.LASF390
	.byte	0x2d
	.value	0x1c5
	.long	0x9d
	.uleb128 0x54
	.long	.LASF392
	.byte	0x2d
	.value	0x1c7
	.long	0x2291
	.uleb128 0x19
	.long	0x3b
	.byte	0
	.uleb128 0x47
	.long	.LASF393
	.byte	0x2d
	.byte	0x75
	.long	0x12a3
	.long	0x22ab
	.uleb128 0x19
	.long	0x14fe
	.uleb128 0x19
	.long	0x1af
	.byte	0
	.uleb128 0x47
	.long	.LASF394
	.byte	0x2d
	.byte	0xb0
	.long	0xbf
	.long	0x22ca
	.uleb128 0x19
	.long	0x14fe
	.uleb128 0x19
	.long	0x1af
	.uleb128 0x19
	.long	0x9d
	.byte	0
	.uleb128 0x47
	.long	.LASF395
	.byte	0x2d
	.byte	0xb4
	.long	0x42
	.long	0x22e9
	.uleb128 0x19
	.long	0x14fe
	.uleb128 0x19
	.long	0x1af
	.uleb128 0x19
	.long	0x9d
	.byte	0
	.uleb128 0x44
	.long	.LASF396
	.byte	0x2d
	.value	0x30d
	.long	0x9d
	.long	0x22ff
	.uleb128 0x19
	.long	0x14fe
	.byte	0
	.uleb128 0x44
	.long	.LASF397
	.byte	0x2d
	.value	0x3a5
	.long	0x18c
	.long	0x231f
	.uleb128 0x19
	.long	0x11a
	.uleb128 0x19
	.long	0x15a3
	.uleb128 0x19
	.long	0x18c
	.byte	0
	.uleb128 0x44
	.long	.LASF398
	.byte	0x2d
	.value	0x39e
	.long	0x9d
	.long	0x233a
	.uleb128 0x19
	.long	0x11a
	.uleb128 0x19
	.long	0x1561
	.byte	0
	.uleb128 0x44
	.long	.LASF399
	.byte	0x2d
	.value	0x357
	.long	0x20c8
	.long	0x2355
	.uleb128 0x19
	.long	0x1c67
	.uleb128 0x19
	.long	0x1c67
	.byte	0
	.uleb128 0x47
	.long	.LASF400
	.byte	0x2d
	.byte	0x70
	.long	0x1c67
	.long	0x236a
	.uleb128 0x19
	.long	0x14fe
	.byte	0
	.uleb128 0x47
	.long	.LASF401
	.byte	0x2d
	.byte	0xc8
	.long	0x1c67
	.long	0x2389
	.uleb128 0x19
	.long	0x14fe
	.uleb128 0x19
	.long	0x1af
	.uleb128 0x19
	.long	0x9d
	.byte	0
	.uleb128 0x47
	.long	.LASF402
	.byte	0x2d
	.byte	0xcd
	.long	0x1c8e
	.long	0x23a8
	.uleb128 0x19
	.long	0x14fe
	.uleb128 0x19
	.long	0x1af
	.uleb128 0x19
	.long	0x9d
	.byte	0
	.uleb128 0x47
	.long	.LASF403
	.byte	0x2d
	.byte	0x7b
	.long	0x129c
	.long	0x23c2
	.uleb128 0x19
	.long	0x14fe
	.uleb128 0x19
	.long	0x1af
	.byte	0
	.uleb128 0x47
	.long	.LASF404
	.byte	0x2d
	.byte	0x7e
	.long	0x12aa
	.long	0x23dc
	.uleb128 0x19
	.long	0x14fe
	.uleb128 0x19
	.long	0x1af
	.byte	0
	.uleb128 0x3e
	.byte	0x10
	.byte	0x2e
	.byte	0x1b
	.long	.LASF405
	.long	0x2401
	.uleb128 0x9
	.long	.LASF406
	.byte	0x2e
	.byte	0x1c
	.long	0xec
	.byte	0
	.uleb128 0x9
	.long	.LASF407
	.byte	0x2e
	.byte	0x1d
	.long	0x134d
	.byte	0x8
	.byte	0
	.uleb128 0x4
	.long	.LASF408
	.byte	0x2e
	.byte	0x1e
	.long	0x23dc
	.uleb128 0x56
	.long	.LASF508
	.byte	0x23
	.byte	0x9a
	.uleb128 0x8
	.long	.LASF409
	.byte	0x18
	.byte	0x23
	.byte	0xa0
	.long	0x2444
	.uleb128 0x9
	.long	.LASF410
	.byte	0x23
	.byte	0xa1
	.long	0x2444
	.byte	0
	.uleb128 0x9
	.long	.LASF411
	.byte	0x23
	.byte	0xa2
	.long	0x244a
	.byte	0x8
	.uleb128 0x9
	.long	.LASF412
	.byte	0x23
	.byte	0xa6
	.long	0x9d
	.byte	0x10
	.byte	0
	.uleb128 0x7
	.byte	0x8
	.long	0x2413
	.uleb128 0x7
	.byte	0x8
	.long	0x1373
	.uleb128 0x41
	.long	0x120
	.long	0x2460
	.uleb128 0x42
	.long	0x42
	.byte	0
	.byte	0
	.uleb128 0x7
	.byte	0x8
	.long	0x240c
	.uleb128 0x41
	.long	0x120
	.long	0x2476
	.uleb128 0x42
	.long	0x42
	.byte	0x13
	.byte	0
	.uleb128 0x57
	.long	.LASF509
	.uleb128 0xc
	.long	.LASF413
	.byte	0x23
	.value	0x13f
	.long	0x2476
	.uleb128 0xc
	.long	.LASF414
	.byte	0x23
	.value	0x140
	.long	0x2476
	.uleb128 0xc
	.long	.LASF415
	.byte	0x23
	.value	0x141
	.long	0x2476
	.uleb128 0x4
	.long	.LASF416
	.byte	0x2f
	.byte	0x4e
	.long	0x2401
	.uleb128 0x3
	.long	0x249f
	.uleb128 0xd
	.long	.LASF417
	.byte	0x2f
	.byte	0x87
	.long	0x244a
	.uleb128 0xd
	.long	.LASF418
	.byte	0x2f
	.byte	0x88
	.long	0x244a
	.uleb128 0xd
	.long	.LASF419
	.byte	0x2f
	.byte	0x89
	.long	0x244a
	.uleb128 0xd
	.long	.LASF420
	.byte	0x30
	.byte	0x1a
	.long	0x9d
	.uleb128 0x41
	.long	0x1504
	.long	0x24e6
	.uleb128 0x58
	.byte	0
	.uleb128 0xd
	.long	.LASF421
	.byte	0x30
	.byte	0x1b
	.long	0x24db
	.uleb128 0xd
	.long	.LASF422
	.byte	0x30
	.byte	0x1e
	.long	0x9d
	.uleb128 0xd
	.long	.LASF423
	.byte	0x30
	.byte	0x1f
	.long	0x24db
	.uleb128 0x54
	.long	.LASF424
	.byte	0x2f
	.value	0x2f5
	.long	0x2519
	.uleb128 0x19
	.long	0x2519
	.byte	0
	.uleb128 0x7
	.byte	0x8
	.long	0x14f3
	.uleb128 0x47
	.long	.LASF425
	.byte	0x2f
	.byte	0xc7
	.long	0x9d
	.long	0x2534
	.uleb128 0x19
	.long	0x2519
	.byte	0
	.uleb128 0x44
	.long	.LASF426
	.byte	0x2f
	.value	0x2f7
	.long	0x9d
	.long	0x254a
	.uleb128 0x19
	.long	0x2519
	.byte	0
	.uleb128 0x44
	.long	.LASF427
	.byte	0x2f
	.value	0x2f9
	.long	0x9d
	.long	0x2560
	.uleb128 0x19
	.long	0x2519
	.byte	0
	.uleb128 0x47
	.long	.LASF428
	.byte	0x2f
	.byte	0xcc
	.long	0x9d
	.long	0x2575
	.uleb128 0x19
	.long	0x2519
	.byte	0
	.uleb128 0x44
	.long	.LASF429
	.byte	0x2f
	.value	0x1dd
	.long	0x9d
	.long	0x258b
	.uleb128 0x19
	.long	0x2519
	.byte	0
	.uleb128 0x44
	.long	.LASF430
	.byte	0x2f
	.value	0x2db
	.long	0x9d
	.long	0x25a6
	.uleb128 0x19
	.long	0x2519
	.uleb128 0x19
	.long	0x25a6
	.byte	0
	.uleb128 0x7
	.byte	0x8
	.long	0x249f
	.uleb128 0x44
	.long	.LASF431
	.byte	0x2f
	.value	0x234
	.long	0x11a
	.long	0x25cc
	.uleb128 0x19
	.long	0x11a
	.uleb128 0x19
	.long	0x9d
	.uleb128 0x19
	.long	0x2519
	.byte	0
	.uleb128 0x47
	.long	.LASF432
	.byte	0x2f
	.byte	0xe8
	.long	0x2519
	.long	0x25e6
	.uleb128 0x19
	.long	0x14fe
	.uleb128 0x19
	.long	0x14fe
	.byte	0
	.uleb128 0x44
	.long	.LASF433
	.byte	0x2f
	.value	0x286
	.long	0x18c
	.long	0x260b
	.uleb128 0x19
	.long	0x118
	.uleb128 0x19
	.long	0x18c
	.uleb128 0x19
	.long	0x18c
	.uleb128 0x19
	.long	0x2519
	.byte	0
	.uleb128 0x47
	.long	.LASF434
	.byte	0x2f
	.byte	0xee
	.long	0x2519
	.long	0x262a
	.uleb128 0x19
	.long	0x14fe
	.uleb128 0x19
	.long	0x14fe
	.uleb128 0x19
	.long	0x2519
	.byte	0
	.uleb128 0x44
	.long	.LASF435
	.byte	0x2f
	.value	0x2ac
	.long	0x9d
	.long	0x264a
	.uleb128 0x19
	.long	0x2519
	.uleb128 0x19
	.long	0xbf
	.uleb128 0x19
	.long	0x9d
	.byte	0
	.uleb128 0x44
	.long	.LASF436
	.byte	0x2f
	.value	0x2e0
	.long	0x9d
	.long	0x2665
	.uleb128 0x19
	.long	0x2519
	.uleb128 0x19
	.long	0x2665
	.byte	0
	.uleb128 0x7
	.byte	0x8
	.long	0x24aa
	.uleb128 0x44
	.long	.LASF437
	.byte	0x2f
	.value	0x2b1
	.long	0xbf
	.long	0x2681
	.uleb128 0x19
	.long	0x2519
	.byte	0
	.uleb128 0x44
	.long	.LASF438
	.byte	0x2f
	.value	0x1de
	.long	0x9d
	.long	0x2697
	.uleb128 0x19
	.long	0x2519
	.byte	0
	.uleb128 0x46
	.long	.LASF439
	.byte	0x2f
	.value	0x1e4
	.long	0x9d
	.uleb128 0x54
	.long	.LASF440
	.byte	0x2f
	.value	0x307
	.long	0x26b5
	.uleb128 0x19
	.long	0x14fe
	.byte	0
	.uleb128 0x47
	.long	.LASF441
	.byte	0x2f
	.byte	0x90
	.long	0x9d
	.long	0x26ca
	.uleb128 0x19
	.long	0x14fe
	.byte	0
	.uleb128 0x47
	.long	.LASF442
	.byte	0x2f
	.byte	0x92
	.long	0x9d
	.long	0x26e4
	.uleb128 0x19
	.long	0x14fe
	.uleb128 0x19
	.long	0x14fe
	.byte	0
	.uleb128 0x54
	.long	.LASF443
	.byte	0x2f
	.value	0x2b6
	.long	0x26f6
	.uleb128 0x19
	.long	0x2519
	.byte	0
	.uleb128 0x54
	.long	.LASF444
	.byte	0x2f
	.value	0x122
	.long	0x270d
	.uleb128 0x19
	.long	0x2519
	.uleb128 0x19
	.long	0x11a
	.byte	0
	.uleb128 0x44
	.long	.LASF445
	.byte	0x2f
	.value	0x126
	.long	0x9d
	.long	0x2732
	.uleb128 0x19
	.long	0x2519
	.uleb128 0x19
	.long	0x11a
	.uleb128 0x19
	.long	0x9d
	.uleb128 0x19
	.long	0x18c
	.byte	0
	.uleb128 0x4e
	.long	.LASF446
	.byte	0x2f
	.byte	0x9f
	.long	0x2519
	.uleb128 0x47
	.long	.LASF447
	.byte	0x2f
	.byte	0xad
	.long	0x11a
	.long	0x2752
	.uleb128 0x19
	.long	0x11a
	.byte	0
	.uleb128 0x44
	.long	.LASF448
	.byte	0x2f
	.value	0x27f
	.long	0x9d
	.long	0x276d
	.uleb128 0x19
	.long	0x9d
	.uleb128 0x19
	.long	0x2519
	.byte	0
	.uleb128 0xd
	.long	.LASF449
	.byte	0x31
	.byte	0x2d
	.long	0x11a
	.uleb128 0xd
	.long	.LASF450
	.byte	0x31
	.byte	0x2e
	.long	0x11a
	.uleb128 0x7
	.byte	0x8
	.long	0xe3f
	.uleb128 0x4
	.long	.LASF451
	.byte	0x32
	.byte	0x26
	.long	0x42
	.uleb128 0x4
	.long	.LASF452
	.byte	0x33
	.byte	0x30
	.long	0x279f
	.uleb128 0x7
	.byte	0x8
	.long	0x98
	.uleb128 0x47
	.long	.LASF453
	.byte	0x32
	.byte	0x9f
	.long	0x9d
	.long	0x27bf
	.uleb128 0x19
	.long	0x12ee
	.uleb128 0x19
	.long	0x2789
	.byte	0
	.uleb128 0x47
	.long	.LASF454
	.byte	0x33
	.byte	0x37
	.long	0x12ee
	.long	0x27d9
	.uleb128 0x19
	.long	0x12ee
	.uleb128 0x19
	.long	0x2794
	.byte	0
	.uleb128 0x47
	.long	.LASF455
	.byte	0x33
	.byte	0x34
	.long	0x2794
	.long	0x27ee
	.uleb128 0x19
	.long	0x14fe
	.byte	0
	.uleb128 0x47
	.long	.LASF456
	.byte	0x32
	.byte	0x9b
	.long	0x2789
	.long	0x2803
	.uleb128 0x19
	.long	0x14fe
	.byte	0
	.uleb128 0x59
	.long	0xfdf
	.uleb128 0x9
	.byte	0x3
	.quad	_ZStL8__ioinit
	.uleb128 0x5a
	.long	.LASF458
	.byte	0x1
	.byte	0xa
	.long	0x9d
	.uleb128 0x9
	.byte	0x3
	.quad	_ZL4TRAP
	.uleb128 0x5a
	.long	.LASF459
	.byte	0x1
	.byte	0xa
	.long	0x9d
	.uleb128 0x9
	.byte	0x3
	.quad	_ZL8FUNCTION
	.uleb128 0x5a
	.long	.LASF460
	.byte	0x1
	.byte	0xa
	.long	0x9d
	.uleb128 0x9
	.byte	0x3
	.quad	_ZL8ADDITION
	.uleb128 0x5a
	.long	.LASF461
	.byte	0x1
	.byte	0xc
	.long	0x9d
	.uleb128 0x9
	.byte	0x3
	.quad	_ZL8testNum1
	.uleb128 0x5a
	.long	.LASF462
	.byte	0x1
	.byte	0xc
	.long	0x9d
	.uleb128 0x9
	.byte	0x3
	.quad	_ZL8testNum2
	.uleb128 0x5a
	.long	.LASF463
	.byte	0x1
	.byte	0xc
	.long	0x9d
	.uleb128 0x9
	.byte	0x3
	.quad	_ZL8testNum3
	.uleb128 0x5b
	.long	.LASF464
	.long	0x118
	.uleb128 0x5c
	.long	.LASF465
	.long	0x631
	.byte	0
	.uleb128 0x5c
	.long	.LASF466
	.long	0x6a7
	.byte	0x1
	.uleb128 0x5d
	.long	.LASF467
	.long	0x103e
	.sleb128 -2147483648
	.uleb128 0x5e
	.long	.LASF468
	.long	0x1049
	.long	0x7fffffff
	.uleb128 0x5c
	.long	.LASF469
	.long	0x10f0
	.byte	0x26
	.uleb128 0x5f
	.long	.LASF470
	.long	0x1132
	.value	0x134
	.uleb128 0x5f
	.long	.LASF471
	.long	0x1174
	.value	0x1344
	.uleb128 0x5c
	.long	.LASF472
	.long	0x11b6
	.byte	0x40
	.uleb128 0x5c
	.long	.LASF473
	.long	0x11e2
	.byte	0x7f
	.uleb128 0x5d
	.long	.LASF474
	.long	0x1219
	.sleb128 -32768
	.uleb128 0x5f
	.long	.LASF475
	.long	0x1224
	.value	0x7fff
	.uleb128 0x5d
	.long	.LASF476
	.long	0x1257
	.sleb128 -9223372036854775808
	.uleb128 0x60
	.long	.LASF477
	.long	0x1262
	.quad	0x7fffffffffffffff
	.uleb128 0x61
	.long	.LASF510
	.quad	.LFB1985
	.quad	.LFE1985-.LFB1985
	.uleb128 0x1
	.byte	0x9c
	.uleb128 0x62
	.long	.LASF511
	.quad	.LFB1984
	.quad	.LFE1984-.LFB1984
	.uleb128 0x1
	.byte	0x9c
	.long	0x2986
	.uleb128 0x63
	.long	.LASF478
	.byte	0x1
	.byte	0x8b
	.long	0x9d
	.uleb128 0x2
	.byte	0x91
	.sleb128 -20
	.uleb128 0x63
	.long	.LASF479
	.byte	0x1
	.byte	0x8b
	.long	0x9d
	.uleb128 0x2
	.byte	0x91
	.sleb128 -24
	.byte	0
	.uleb128 0x64
	.long	.LASF480
	.byte	0x1
	.byte	0x80
	.long	0x9d
	.quad	.LFB1499
	.quad	.LFE1499-.LFB1499
	.uleb128 0x1
	.byte	0x9c
	.long	0x29d2
	.uleb128 0x63
	.long	.LASF481
	.byte	0x1
	.byte	0x80
	.long	0x9d
	.uleb128 0x2
	.byte	0x91
	.sleb128 -52
	.uleb128 0x63
	.long	.LASF482
	.byte	0x1
	.byte	0x80
	.long	0x1af
	.uleb128 0x2
	.byte	0x91
	.sleb128 -64
	.uleb128 0x5a
	.long	.LASF483
	.byte	0x1
	.byte	0x82
	.long	0x9d
	.uleb128 0x2
	.byte	0x91
	.sleb128 -44
	.byte	0
	.uleb128 0x65
	.long	.LASF485
	.byte	0x1
	.byte	0x7b
	.long	.LASF487
	.long	0x12a3
	.quad	.LFB1498
	.quad	.LFE1498-.LFB1498
	.uleb128 0x1
	.byte	0x9c
	.long	0x2a06
	.uleb128 0x63
	.long	.LASF483
	.byte	0x1
	.byte	0x7b
	.long	0x3b
	.uleb128 0x2
	.byte	0x91
	.sleb128 -20
	.byte	0
	.uleb128 0x65
	.long	.LASF488
	.byte	0x1
	.byte	0x73
	.long	.LASF489
	.long	0x12a3
	.quad	.LFB1497
	.quad	.LFE1497-.LFB1497
	.uleb128 0x1
	.byte	0x9c
	.long	0x2a3a
	.uleb128 0x63
	.long	.LASF483
	.byte	0x1
	.byte	0x73
	.long	0x3b
	.uleb128 0x2
	.byte	0x91
	.sleb128 -20
	.byte	0
	.uleb128 0x65
	.long	.LASF490
	.byte	0x1
	.byte	0x6b
	.long	.LASF491
	.long	0x12a3
	.quad	.LFB1496
	.quad	.LFE1496-.LFB1496
	.uleb128 0x1
	.byte	0x9c
	.long	0x2a6e
	.uleb128 0x63
	.long	.LASF483
	.byte	0x1
	.byte	0x6b
	.long	0x3b
	.uleb128 0x2
	.byte	0x91
	.sleb128 -20
	.byte	0
	.uleb128 0x66
	.long	.LASF512
	.byte	0x1
	.byte	0x24
	.long	0x12a3
	.quad	.LFB1495
	.quad	.LFE1495-.LFB1495
	.uleb128 0x1
	.byte	0x9c
	.long	0x2b4e
	.uleb128 0x63
	.long	.LASF492
	.byte	0x1
	.byte	0x24
	.long	0x9d
	.uleb128 0x3
	.byte	0x91
	.sleb128 -116
	.uleb128 0x63
	.long	.LASF483
	.byte	0x1
	.byte	0x24
	.long	0x3b
	.uleb128 0x3
	.byte	0x91
	.sleb128 -120
	.uleb128 0x5a
	.long	.LASF493
	.byte	0x1
	.byte	0x2b
	.long	0x3b
	.uleb128 0x3
	.byte	0x91
	.sleb128 -88
	.uleb128 0x5a
	.long	.LASF494
	.byte	0x1
	.byte	0x2c
	.long	0x3b
	.uleb128 0x3
	.byte	0x91
	.sleb128 -84
	.uleb128 0x5a
	.long	.LASF495
	.byte	0x1
	.byte	0x33
	.long	0x137
	.uleb128 0x3
	.byte	0x91
	.sleb128 -80
	.uleb128 0x5a
	.long	.LASF496
	.byte	0x1
	.byte	0x33
	.long	0x137
	.uleb128 0x2
	.byte	0x91
	.sleb128 -64
	.uleb128 0x67
	.quad	.LBB4
	.quad	.LBE4-.LBB4
	.long	0x2b0b
	.uleb128 0x68
	.string	"i"
	.byte	0x1
	.byte	0x38
	.long	0x3b
	.uleb128 0x3
	.byte	0x91
	.sleb128 -100
	.byte	0
	.uleb128 0x67
	.quad	.LBB7
	.quad	.LBE7-.LBB7
	.long	0x2b2e
	.uleb128 0x68
	.string	"i"
	.byte	0x1
	.byte	0x49
	.long	0x3b
	.uleb128 0x3
	.byte	0x91
	.sleb128 -96
	.byte	0
	.uleb128 0x69
	.quad	.LBB10
	.quad	.LBE10-.LBB10
	.uleb128 0x68
	.string	"i"
	.byte	0x1
	.byte	0x59
	.long	0x3b
	.uleb128 0x3
	.byte	0x91
	.sleb128 -92
	.byte	0
	.byte	0
	.uleb128 0x6a
	.long	.LASF497
	.byte	0x1
	.byte	0x18
	.quad	.LFB1494
	.quad	.LFE1494-.LFB1494
	.uleb128 0x1
	.byte	0x9c
	.uleb128 0x6a
	.long	.LASF498
	.byte	0x1
	.byte	0x11
	.quad	.LFB1493
	.quad	.LFE1493-.LFB1493
	.uleb128 0x1
	.byte	0x9c
	.byte	0
	.section	.debug_abbrev,"",@progbits
.Ldebug_abbrev0:
	.uleb128 0x1
	.uleb128 0x11
	.byte	0x1
	.uleb128 0x25
	.uleb128 0xe
	.uleb128 0x13
	.uleb128 0xb
	.uleb128 0x3
	.uleb128 0xe
	.uleb128 0x1b
	.uleb128 0xe
	.uleb128 0x11
	.uleb128 0x1
	.uleb128 0x12
	.uleb128 0x7
	.uleb128 0x10
	.uleb128 0x17
	.byte	0
	.byte	0
	.uleb128 0x2
	.uleb128 0x24
	.byte	0
	.uleb128 0xb
	.uleb128 0xb
	.uleb128 0x3e
	.uleb128 0xb
	.uleb128 0x3
	.uleb128 0xe
	.byte	0
	.byte	0
	.uleb128 0x3
	.uleb128 0x26
	.byte	0
	.uleb128 0x49
	.uleb128 0x13
	.byte	0
	.byte	0
	.uleb128 0x4
	.uleb128 0x16
	.byte	0
	.uleb128 0x3
	.uleb128 0xe
	.uleb128 0x3a
	.uleb128 0xb
	.uleb128 0x3b
	.uleb128 0xb
	.uleb128 0x49
	.uleb128 0x13
	.byte	0
	.byte	0
	.uleb128 0x5
	.uleb128 0x24
	.byte	0
	.uleb128 0xb
	.uleb128 0xb
	.uleb128 0x3e
	.uleb128 0xb
	.uleb128 0x3
	.uleb128 0x8
	.byte	0
	.byte	0
	.uleb128 0x6
	.uleb128 0xf
	.byte	0
	.uleb128 0xb
	.uleb128 0xb
	.byte	0
	.byte	0
	.uleb128 0x7
	.uleb128 0xf
	.byte	0
	.uleb128 0xb
	.uleb128 0xb
	.uleb128 0x49
	.uleb128 0x13
	.byte	0
	.byte	0
	.uleb128 0x8
	.uleb128 0x13
	.byte	0x1
	.uleb128 0x3
	.uleb128 0xe
	.uleb128 0xb
	.uleb128 0xb
	.uleb128 0x3a
	.uleb128 0xb
	.uleb128 0x3b
	.uleb128 0xb
	.uleb128 0x1
	.uleb128 0x13
	.byte	0
	.byte	0
	.uleb128 0x9
	.uleb128 0xd
	.byte	0
	.uleb128 0x3
	.uleb128 0xe
	.uleb128 0x3a
	.uleb128 0xb
	.uleb128 0x3b
	.uleb128 0xb
	.uleb128 0x49
	.uleb128 0x13
	.uleb128 0x38
	.uleb128 0xb
	.byte	0
	.byte	0
	.uleb128 0xa
	.uleb128 0x37
	.byte	0
	.uleb128 0x49
	.uleb128 0x13
	.byte	0
	.byte	0
	.uleb128 0xb
	.uleb128 0x16
	.byte	0
	.uleb128 0x3
	.uleb128 0xe
	.uleb128 0x3a
	.uleb128 0xb
	.uleb128 0x3b
	.uleb128 0x5
	.uleb128 0x49
	.uleb128 0x13
	.byte	0
	.byte	0
	.uleb128 0xc
	.uleb128 0x34
	.byte	0
	.uleb128 0x3
	.uleb128 0xe
	.uleb128 0x3a
	.uleb128 0xb
	.uleb128 0x3b
	.uleb128 0x5
	.uleb128 0x49
	.uleb128 0x13
	.uleb128 0x3f
	.uleb128 0x19
	.uleb128 0x3c
	.uleb128 0x19
	.byte	0
	.byte	0
	.uleb128 0xd
	.uleb128 0x34
	.byte	0
	.uleb128 0x3
	.uleb128 0xe
	.uleb128 0x3a
	.uleb128 0xb
	.uleb128 0x3b
	.uleb128 0xb
	.uleb128 0x49
	.uleb128 0x13
	.uleb128 0x3f
	.uleb128 0x19
	.uleb128 0x3c
	.uleb128 0x19
	.byte	0
	.byte	0
	.uleb128 0xe
	.uleb128 0x39
	.byte	0x1
	.uleb128 0x3
	.uleb128 0x8
	.uleb128 0x3a
	.uleb128 0xb
	.uleb128 0x3b
	.uleb128 0xb
	.uleb128 0x1
	.uleb128 0x13
	.byte	0
	.byte	0
	.uleb128 0xf
	.uleb128 0x39
	.byte	0
	.uleb128 0x3
	.uleb128 0xe
	.uleb128 0x3a
	.uleb128 0xb
	.uleb128 0x3b
	.uleb128 0xb
	.byte	0
	.byte	0
	.uleb128 0x10
	.uleb128 0x3a
	.byte	0
	.uleb128 0x3a
	.uleb128 0xb
	.uleb128 0x3b
	.uleb128 0xb
	.uleb128 0x18
	.uleb128 0x13
	.byte	0
	.byte	0
	.uleb128 0x11
	.uleb128 0x8
	.byte	0
	.uleb128 0x3a
	.uleb128 0xb
	.uleb128 0x3b
	.uleb128 0xb
	.uleb128 0x18
	.uleb128 0x13
	.byte	0
	.byte	0
	.uleb128 0x12
	.uleb128 0x8
	.byte	0
	.uleb128 0x3a
	.uleb128 0xb
	.uleb128 0x3b
	.uleb128 0x5
	.uleb128 0x18
	.uleb128 0x13
	.byte	0
	.byte	0
	.uleb128 0x13
	.uleb128 0x2e
	.byte	0x1
	.uleb128 0x3f
	.uleb128 0x19
	.uleb128 0x3
	.uleb128 0xe
	.uleb128 0x3a
	.uleb128 0xb
	.uleb128 0x3b
	.uleb128 0xb
	.uleb128 0x6e
	.uleb128 0xe
	.uleb128 0x3c
	.uleb128 0x19
	.uleb128 0x63
	.uleb128 0x19
	.uleb128 0x8b
	.uleb128 0xb
	.uleb128 0x64
	.uleb128 0x13
	.byte	0
	.byte	0
	.uleb128 0x14
	.uleb128 0x5
	.byte	0
	.uleb128 0x49
	.uleb128 0x13
	.uleb128 0x34
	.uleb128 0x19
	.byte	0
	.byte	0
	.uleb128 0x15
	.uleb128 0x34
	.byte	0
	.uleb128 0x3
	.uleb128 0xe
	.uleb128 0x3a
	.uleb128 0xb
	.uleb128 0x3b
	.uleb128 0xb
	.uleb128 0x6e
	.uleb128 0xe
	.uleb128 0x49
	.uleb128 0x13
	.uleb128 0x3f
	.uleb128 0x19
	.uleb128 0x3c
	.uleb128 0x19
	.byte	0
	.byte	0
	.uleb128 0x16
	.uleb128 0x39
	.byte	0x1
	.uleb128 0x3
	.uleb128 0xe
	.uleb128 0x3a
	.uleb128 0xb
	.uleb128 0x3b
	.uleb128 0xb
	.uleb128 0x1
	.uleb128 0x13
	.byte	0
	.byte	0
	.uleb128 0x17
	.uleb128 0x2
	.byte	0x1
	.uleb128 0x3
	.uleb128 0xe
	.uleb128 0xb
	.uleb128 0xb
	.uleb128 0x3a
	.uleb128 0xb
	.uleb128 0x3b
	.uleb128 0xb
	.uleb128 0x1
	.uleb128 0x13
	.byte	0
	.byte	0
	.uleb128 0x18
	.uleb128 0x2e
	.byte	0x1
	.uleb128 0x3f
	.uleb128 0x19
	.uleb128 0x3
	.uleb128 0xe
	.uleb128 0x3a
	.uleb128 0xb
	.uleb128 0x3b
	.uleb128 0xb
	.uleb128 0x6e
	.uleb128 0xe
	.uleb128 0x3c
	.uleb128 0x19
	.uleb128 0x63
	.uleb128 0x19
	.uleb128 0x64
	.uleb128 0x13
	.uleb128 0x1
	.uleb128 0x13
	.byte	0
	.byte	0
	.uleb128 0x19
	.uleb128 0x5
	.byte	0
	.uleb128 0x49
	.uleb128 0x13
	.byte	0
	.byte	0
	.uleb128 0x1a
	.uleb128 0x2e
	.byte	0x1
	.uleb128 0x3f
	.uleb128 0x19
	.uleb128 0x3
	.uleb128 0xe
	.uleb128 0x3a
	.uleb128 0xb
	.uleb128 0x3b
	.uleb128 0xb
	.uleb128 0x6e
	.uleb128 0xe
	.uleb128 0x3c
	.uleb128 0x19
	.uleb128 0x64
	.uleb128 0x13
	.uleb128 0x1
	.uleb128 0x13
	.byte	0
	.byte	0
	.uleb128 0x1b
	.uleb128 0x2e
	.byte	0x1
	.uleb128 0x3f
	.uleb128 0x19
	.uleb128 0x3
	.uleb128 0xe
	.uleb128 0x3a
	.uleb128 0xb
	.uleb128 0x3b
	.uleb128 0xb
	.uleb128 0x6e
	.uleb128 0xe
	.uleb128 0x49
	.uleb128 0x13
	.uleb128 0x3c
	.uleb128 0x19
	.uleb128 0x64
	.uleb128 0x13
	.uleb128 0x1
	.uleb128 0x13
	.byte	0
	.byte	0
	.uleb128 0x1c
	.uleb128 0x2e
	.byte	0x1
	.uleb128 0x3f
	.uleb128 0x19
	.uleb128 0x3
	.uleb128 0xe
	.uleb128 0x3a
	.uleb128 0xb
	.uleb128 0x3b
	.uleb128 0xb
	.uleb128 0x6e
	.uleb128 0xe
	.uleb128 0x32
	.uleb128 0xb
	.uleb128 0x3c
	.uleb128 0x19
	.uleb128 0x64
	.uleb128 0x13
	.uleb128 0x1
	.uleb128 0x13
	.byte	0
	.byte	0
	.uleb128 0x1d
	.uleb128 0x2e
	.byte	0x1
	.uleb128 0x3f
	.uleb128 0x19
	.uleb128 0x3
	.uleb128 0xe
	.uleb128 0x3a
	.uleb128 0xb
	.uleb128 0x3b
	.uleb128 0xb
	.uleb128 0x6e
	.uleb128 0xe
	.uleb128 0x49
	.uleb128 0x13
	.uleb128 0x32
	.uleb128 0xb
	.uleb128 0x3c
	.uleb128 0x19
	.uleb128 0x64
	.uleb128 0x13
	.uleb128 0x1
	.uleb128 0x13
	.byte	0
	.byte	0
	.uleb128 0x1e
	.uleb128 0x2e
	.byte	0x1
	.uleb128 0x3f
	.uleb128 0x19
	.uleb128 0x3
	.uleb128 0xe
	.uleb128 0x3a
	.uleb128 0xb
	.uleb128 0x3b
	.uleb128 0xb
	.uleb128 0x6e
	.uleb128 0xe
	.uleb128 0x49
	.uleb128 0x13
	.uleb128 0x32
	.uleb128 0xb
	.uleb128 0x3c
	.uleb128 0x19
	.uleb128 0x63
	.uleb128 0x19
	.uleb128 0x64
	.uleb128 0x13
	.uleb128 0x1
	.uleb128 0x13
	.byte	0
	.byte	0
	.uleb128 0x1f
	.uleb128 0x2e
	.byte	0x1
	.uleb128 0x3f
	.uleb128 0x19
	.uleb128 0x3
	.uleb128 0xe
	.uleb128 0x3a
	.uleb128 0xb
	.uleb128 0x3b
	.uleb128 0xb
	.uleb128 0x6e
	.uleb128 0xe
	.uleb128 0x49
	.uleb128 0x13
	.uleb128 0x32
	.uleb128 0xb
	.uleb128 0x3c
	.uleb128 0x19
	.uleb128 0x64
	.uleb128 0x13
	.byte	0
	.byte	0
	.uleb128 0x20
	.uleb128 0x2e
	.byte	0x1
	.uleb128 0x3f
	.uleb128 0x19
	.uleb128 0x3
	.uleb128 0xe
	.uleb128 0x3a
	.uleb128 0xb
	.uleb128 0x3b
	.uleb128 0xb
	.uleb128 0x6e
	.uleb128 0xe
	.uleb128 0x87
	.uleb128 0x19
	.uleb128 0x3c
	.uleb128 0x19
	.uleb128 0x1
	.uleb128 0x13
	.byte	0
	.byte	0
	.uleb128 0x21
	.uleb128 0x2
	.byte	0
	.uleb128 0x3
	.uleb128 0xe
	.uleb128 0x3c
	.uleb128 0x19
	.byte	0
	.byte	0
	.uleb128 0x22
	.uleb128 0xd
	.byte	0
	.uleb128 0x3
	.uleb128 0xe
	.uleb128 0x3a
	.uleb128 0xb
	.uleb128 0x3b
	.uleb128 0xb
	.uleb128 0x49
	.uleb128 0x13
	.uleb128 0x3f
	.uleb128 0x19
	.uleb128 0x3c
	.uleb128 0x19
	.uleb128 0x6c
	.uleb128 0x19
	.byte	0
	.byte	0
	.uleb128 0x23
	.uleb128 0x2f
	.byte	0
	.uleb128 0x3
	.uleb128 0x8
	.uleb128 0x49
	.uleb128 0x13
	.byte	0
	.byte	0
	.uleb128 0x24
	.uleb128 0x30
	.byte	0
	.uleb128 0x3
	.uleb128 0x8
	.uleb128 0x49
	.uleb128 0x13
	.uleb128 0x1c
	.uleb128 0xa
	.byte	0
	.byte	0
	.uleb128 0x25
	.uleb128 0x39
	.byte	0
	.uleb128 0x3
	.uleb128 0xe
	.uleb128 0x3a
	.uleb128 0xb
	.uleb128 0x3b
	.uleb128 0x5
	.byte	0
	.byte	0
	.uleb128 0x26
	.uleb128 0x4
	.byte	0x1
	.uleb128 0x3e
	.uleb128 0xb
	.uleb128 0xb
	.uleb128 0xb
	.uleb128 0x49
	.uleb128 0x13
	.uleb128 0x3a
	.uleb128 0xb
	.uleb128 0x3b
	.uleb128 0xb
	.uleb128 0x1
	.uleb128 0x13
	.byte	0
	.byte	0
	.uleb128 0x27
	.uleb128 0x28
	.byte	0
	.uleb128 0x3
	.uleb128 0xe
	.uleb128 0x1c
	.uleb128 0xb
	.byte	0
	.byte	0
	.uleb128 0x28
	.uleb128 0x34
	.byte	0
	.uleb128 0x3
	.uleb128 0xe
	.uleb128 0x3a
	.uleb128 0xb
	.uleb128 0x3b
	.uleb128 0xb
	.uleb128 0x49
	.uleb128 0x13
	.uleb128 0x3c
	.uleb128 0x19
	.uleb128 0x1c
	.uleb128 0xa
	.uleb128 0x6c
	.uleb128 0x19
	.byte	0
	.byte	0
	.uleb128 0x29
	.uleb128 0x13
	.byte	0x1
	.uleb128 0x3
	.uleb128 0xe
	.uleb128 0xb
	.uleb128 0xb
	.uleb128 0x3a
	.uleb128 0xb
	.uleb128 0x3b
	.uleb128 0x5
	.uleb128 0x1
	.uleb128 0x13
	.byte	0
	.byte	0
	.uleb128 0x2a
	.uleb128 0x2e
	.byte	0x1
	.uleb128 0x3f
	.uleb128 0x19
	.uleb128 0x3
	.uleb128 0xe
	.uleb128 0x3a
	.uleb128 0xb
	.uleb128 0x3b
	.uleb128 0x5
	.uleb128 0x6e
	.uleb128 0xe
	.uleb128 0x3c
	.uleb128 0x19
	.uleb128 0x1
	.uleb128 0x13
	.byte	0
	.byte	0
	.uleb128 0x2b
	.uleb128 0x2e
	.byte	0x1
	.uleb128 0x3f
	.uleb128 0x19
	.uleb128 0x3
	.uleb128 0x8
	.uleb128 0x3a
	.uleb128 0xb
	.uleb128 0x3b
	.uleb128 0x5
	.uleb128 0x6e
	.uleb128 0xe
	.uleb128 0x49
	.uleb128 0x13
	.uleb128 0x3c
	.uleb128 0x19
	.uleb128 0x1
	.uleb128 0x13
	.byte	0
	.byte	0
	.uleb128 0x2c
	.uleb128 0x2e
	.byte	0x1
	.uleb128 0x3f
	.uleb128 0x19
	.uleb128 0x3
	.uleb128 0xe
	.uleb128 0x3a
	.uleb128 0xb
	.uleb128 0x3b
	.uleb128 0x5
	.uleb128 0x6e
	.uleb128 0xe
	.uleb128 0x49
	.uleb128 0x13
	.uleb128 0x3c
	.uleb128 0x19
	.uleb128 0x1
	.uleb128 0x13
	.byte	0
	.byte	0
	.uleb128 0x2d
	.uleb128 0x2e
	.byte	0
	.uleb128 0x3f
	.uleb128 0x19
	.uleb128 0x3
	.uleb128 0x8
	.uleb128 0x3a
	.uleb128 0xb
	.uleb128 0x3b
	.uleb128 0x5
	.uleb128 0x6e
	.uleb128 0xe
	.uleb128 0x49
	.uleb128 0x13
	.uleb128 0x3c
	.uleb128 0x19
	.byte	0
	.byte	0
	.uleb128 0x2e
	.uleb128 0x2e
	.byte	0x1
	.uleb128 0x3f
	.uleb128 0x19
	.uleb128 0x3
	.uleb128 0xe
	.uleb128 0x3a
	.uleb128 0xb
	.uleb128 0x3b
	.uleb128 0x5
	.uleb128 0x6e
	.uleb128 0xe
	.uleb128 0x49
	.uleb128 0x13
	.uleb128 0x3c
	.uleb128 0x19
	.byte	0
	.byte	0
	.uleb128 0x2f
	.uleb128 0x39
	.byte	0x1
	.uleb128 0x3
	.uleb128 0xe
	.uleb128 0x3a
	.uleb128 0xb
	.uleb128 0x3b
	.uleb128 0x5
	.uleb128 0x1
	.uleb128 0x13
	.byte	0
	.byte	0
	.uleb128 0x30
	.uleb128 0x3a
	.byte	0
	.uleb128 0x3a
	.uleb128 0xb
	.uleb128 0x3b
	.uleb128 0x5
	.uleb128 0x18
	.uleb128 0x13
	.byte	0
	.byte	0
	.uleb128 0x31
	.uleb128 0x39
	.byte	0
	.uleb128 0x3
	.uleb128 0x8
	.uleb128 0x3a
	.uleb128 0xb
	.uleb128 0x3b
	.uleb128 0xb
	.byte	0
	.byte	0
	.uleb128 0x32
	.uleb128 0x2
	.byte	0x1
	.uleb128 0x3
	.uleb128 0xe
	.uleb128 0x3c
	.uleb128 0x19
	.uleb128 0x1
	.uleb128 0x13
	.byte	0
	.byte	0
	.uleb128 0x33
	.uleb128 0x2
	.byte	0x1
	.uleb128 0x3
	.uleb128 0xe
	.uleb128 0xb
	.uleb128 0xb
	.uleb128 0x3a
	.uleb128 0xb
	.uleb128 0x3b
	.uleb128 0x5
	.uleb128 0x32
	.uleb128 0xb
	.byte	0
	.byte	0
	.uleb128 0x34
	.uleb128 0xd
	.byte	0
	.uleb128 0x3
	.uleb128 0xe
	.uleb128 0x3a
	.uleb128 0xb
	.uleb128 0x3b
	.uleb128 0x5
	.uleb128 0x49
	.uleb128 0x13
	.uleb128 0x3f
	.uleb128 0x19
	.uleb128 0x3c
	.uleb128 0x19
	.byte	0
	.byte	0
	.uleb128 0x35
	.uleb128 0x2e
	.byte	0x1
	.uleb128 0x3f
	.uleb128 0x19
	.uleb128 0x3
	.uleb128 0xe
	.uleb128 0x3a
	.uleb128 0xb
	.uleb128 0x3b
	.uleb128 0x5
	.uleb128 0x6e
	.uleb128 0xe
	.uleb128 0x32
	.uleb128 0xb
	.uleb128 0x3c
	.uleb128 0x19
	.uleb128 0x64
	.uleb128 0x13
	.uleb128 0x1
	.uleb128 0x13
	.byte	0
	.byte	0
	.uleb128 0x36
	.uleb128 0x2e
	.byte	0x1
	.uleb128 0x3f
	.uleb128 0x19
	.uleb128 0x3
	.uleb128 0xe
	.uleb128 0x3a
	.uleb128 0xb
	.uleb128 0x3b
	.uleb128 0x5
	.uleb128 0x6e
	.uleb128 0xe
	.uleb128 0x32
	.uleb128 0xb
	.uleb128 0x3c
	.uleb128 0x19
	.uleb128 0x64
	.uleb128 0x13
	.byte	0
	.byte	0
	.uleb128 0x37
	.uleb128 0x2f
	.byte	0
	.uleb128 0x3
	.uleb128 0xe
	.uleb128 0x49
	.uleb128 0x13
	.byte	0
	.byte	0
	.uleb128 0x38
	.uleb128 0x2f
	.byte	0
	.uleb128 0x3
	.uleb128 0xe
	.uleb128 0x49
	.uleb128 0x13
	.uleb128 0x1e
	.uleb128 0x19
	.byte	0
	.byte	0
	.uleb128 0x39
	.uleb128 0x34
	.byte	0
	.uleb128 0x3
	.uleb128 0x8
	.uleb128 0x3a
	.uleb128 0xb
	.uleb128 0x3b
	.uleb128 0xb
	.uleb128 0x6e
	.uleb128 0xe
	.uleb128 0x49
	.uleb128 0x13
	.uleb128 0x3f
	.uleb128 0x19
	.uleb128 0x3c
	.uleb128 0x19
	.byte	0
	.byte	0
	.uleb128 0x3a
	.uleb128 0x34
	.byte	0
	.uleb128 0x3
	.uleb128 0xe
	.uleb128 0x3a
	.uleb128 0xb
	.uleb128 0x3b
	.uleb128 0xb
	.uleb128 0x49
	.uleb128 0x13
	.uleb128 0x3c
	.uleb128 0x19
	.byte	0
	.byte	0
	.uleb128 0x3b
	.uleb128 0xd
	.byte	0
	.uleb128 0x3
	.uleb128 0xe
	.uleb128 0x3a
	.uleb128 0xb
	.uleb128 0x3b
	.uleb128 0xb
	.uleb128 0x49
	.uleb128 0x13
	.uleb128 0x3f
	.uleb128 0x19
	.uleb128 0x3c
	.uleb128 0x19
	.byte	0
	.byte	0
	.uleb128 0x3c
	.uleb128 0x2e
	.byte	0x1
	.uleb128 0x3f
	.uleb128 0x19
	.uleb128 0x3
	.uleb128 0x8
	.uleb128 0x3a
	.uleb128 0xb
	.uleb128 0x3b
	.uleb128 0xb
	.uleb128 0x6e
	.uleb128 0xe
	.uleb128 0x49
	.uleb128 0x13
	.uleb128 0x3c
	.uleb128 0x19
	.uleb128 0x1
	.uleb128 0x13
	.byte	0
	.byte	0
	.uleb128 0x3d
	.uleb128 0x13
	.byte	0x1
	.uleb128 0x3
	.uleb128 0xe
	.uleb128 0xb
	.uleb128 0xb
	.uleb128 0x3a
	.uleb128 0xb
	.uleb128 0x3b
	.uleb128 0xb
	.byte	0
	.byte	0
	.uleb128 0x3e
	.uleb128 0x13
	.byte	0x1
	.uleb128 0xb
	.uleb128 0xb
	.uleb128 0x3a
	.uleb128 0xb
	.uleb128 0x3b
	.uleb128 0xb
	.uleb128 0x6e
	.uleb128 0xe
	.uleb128 0x1
	.uleb128 0x13
	.byte	0
	.byte	0
	.uleb128 0x3f
	.uleb128 0x17
	.byte	0x1
	.uleb128 0xb
	.uleb128 0xb
	.uleb128 0x3a
	.uleb128 0xb
	.uleb128 0x3b
	.uleb128 0xb
	.uleb128 0x1
	.uleb128 0x13
	.byte	0
	.byte	0
	.uleb128 0x40
	.uleb128 0xd
	.byte	0
	.uleb128 0x3
	.uleb128 0xe
	.uleb128 0x3a
	.uleb128 0xb
	.uleb128 0x3b
	.uleb128 0xb
	.uleb128 0x49
	.uleb128 0x13
	.byte	0
	.byte	0
	.uleb128 0x41
	.uleb128 0x1
	.byte	0x1
	.uleb128 0x49
	.uleb128 0x13
	.uleb128 0x1
	.uleb128 0x13
	.byte	0
	.byte	0
	.uleb128 0x42
	.uleb128 0x21
	.byte	0
	.uleb128 0x49
	.uleb128 0x13
	.uleb128 0x2f
	.uleb128 0xb
	.byte	0
	.byte	0
	.uleb128 0x43
	.uleb128 0xd
	.byte	0
	.uleb128 0x3
	.uleb128 0xe
	.uleb128 0x3a
	.uleb128 0xb
	.uleb128 0x3b
	.uleb128 0x5
	.uleb128 0x49
	.uleb128 0x13
	.uleb128 0x38
	.uleb128 0xb
	.byte	0
	.byte	0
	.uleb128 0x44
	.uleb128 0x2e
	.byte	0x1
	.uleb128 0x3f
	.uleb128 0x19
	.uleb128 0x3
	.uleb128 0xe
	.uleb128 0x3a
	.uleb128 0xb
	.uleb128 0x3b
	.uleb128 0x5
	.uleb128 0x49
	.uleb128 0x13
	.uleb128 0x3c
	.uleb128 0x19
	.uleb128 0x1
	.uleb128 0x13
	.byte	0
	.byte	0
	.uleb128 0x45
	.uleb128 0x18
	.byte	0
	.byte	0
	.byte	0
	.uleb128 0x46
	.uleb128 0x2e
	.byte	0
	.uleb128 0x3f
	.uleb128 0x19
	.uleb128 0x3
	.uleb128 0xe
	.uleb128 0x3a
	.uleb128 0xb
	.uleb128 0x3b
	.uleb128 0x5
	.uleb128 0x49
	.uleb128 0x13
	.uleb128 0x3c
	.uleb128 0x19
	.byte	0
	.byte	0
	.uleb128 0x47
	.uleb128 0x2e
	.byte	0x1
	.uleb128 0x3f
	.uleb128 0x19
	.uleb128 0x3
	.uleb128 0xe
	.uleb128 0x3a
	.uleb128 0xb
	.uleb128 0x3b
	.uleb128 0xb
	.uleb128 0x49
	.uleb128 0x13
	.uleb128 0x3c
	.uleb128 0x19
	.uleb128 0x1
	.uleb128 0x13
	.byte	0
	.byte	0
	.uleb128 0x48
	.uleb128 0x13
	.byte	0x1
	.uleb128 0x3
	.uleb128 0x8
	.uleb128 0xb
	.uleb128 0xb
	.uleb128 0x3a
	.uleb128 0xb
	.uleb128 0x3b
	.uleb128 0xb
	.uleb128 0x1
	.uleb128 0x13
	.byte	0
	.byte	0
	.uleb128 0x49
	.uleb128 0x2e
	.byte	0x1
	.uleb128 0x3f
	.uleb128 0x19
	.uleb128 0x3
	.uleb128 0xe
	.uleb128 0x3a
	.uleb128 0xb
	.uleb128 0x3b
	.uleb128 0xb
	.uleb128 0x6e
	.uleb128 0xe
	.uleb128 0x49
	.uleb128 0x13
	.uleb128 0x3c
	.uleb128 0x19
	.uleb128 0x1
	.uleb128 0x13
	.byte	0
	.byte	0
	.uleb128 0x4a
	.uleb128 0x3b
	.byte	0
	.uleb128 0x3
	.uleb128 0xe
	.byte	0
	.byte	0
	.uleb128 0x4b
	.uleb128 0x10
	.byte	0
	.uleb128 0xb
	.uleb128 0xb
	.uleb128 0x49
	.uleb128 0x13
	.byte	0
	.byte	0
	.uleb128 0x4c
	.uleb128 0x42
	.byte	0
	.uleb128 0xb
	.uleb128 0xb
	.uleb128 0x49
	.uleb128 0x13
	.byte	0
	.byte	0
	.uleb128 0x4d
	.uleb128 0x34
	.byte	0
	.uleb128 0x47
	.uleb128 0x13
	.byte	0
	.byte	0
	.uleb128 0x4e
	.uleb128 0x2e
	.byte	0
	.uleb128 0x3f
	.uleb128 0x19
	.uleb128 0x3
	.uleb128 0xe
	.uleb128 0x3a
	.uleb128 0xb
	.uleb128 0x3b
	.uleb128 0xb
	.uleb128 0x49
	.uleb128 0x13
	.uleb128 0x3c
	.uleb128 0x19
	.byte	0
	.byte	0
	.uleb128 0x4f
	.uleb128 0x26
	.byte	0
	.byte	0
	.byte	0
	.uleb128 0x50
	.uleb128 0xd
	.byte	0
	.uleb128 0x3
	.uleb128 0x8
	.uleb128 0x3a
	.uleb128 0xb
	.uleb128 0x3b
	.uleb128 0xb
	.uleb128 0x49
	.uleb128 0x13
	.uleb128 0x38
	.uleb128 0xb
	.byte	0
	.byte	0
	.uleb128 0x51
	.uleb128 0x15
	.byte	0x1
	.uleb128 0x49
	.uleb128 0x13
	.uleb128 0x1
	.uleb128 0x13
	.byte	0
	.byte	0
	.uleb128 0x52
	.uleb128 0x15
	.byte	0
	.byte	0
	.byte	0
	.uleb128 0x53
	.uleb128 0x2e
	.byte	0x1
	.uleb128 0x3f
	.uleb128 0x19
	.uleb128 0x3
	.uleb128 0x8
	.uleb128 0x3a
	.uleb128 0xb
	.uleb128 0x3b
	.uleb128 0x5
	.uleb128 0x49
	.uleb128 0x13
	.uleb128 0x3c
	.uleb128 0x19
	.uleb128 0x1
	.uleb128 0x13
	.byte	0
	.byte	0
	.uleb128 0x54
	.uleb128 0x2e
	.byte	0x1
	.uleb128 0x3f
	.uleb128 0x19
	.uleb128 0x3
	.uleb128 0xe
	.uleb128 0x3a
	.uleb128 0xb
	.uleb128 0x3b
	.uleb128 0x5
	.uleb128 0x3c
	.uleb128 0x19
	.uleb128 0x1
	.uleb128 0x13
	.byte	0
	.byte	0
	.uleb128 0x55
	.uleb128 0x2e
	.byte	0x1
	.uleb128 0x3f
	.uleb128 0x19
	.uleb128 0x3
	.uleb128 0xe
	.uleb128 0x3a
	.uleb128 0xb
	.uleb128 0x3b
	.uleb128 0x5
	.uleb128 0x87
	.uleb128 0x19
	.uleb128 0x3c
	.uleb128 0x19
	.uleb128 0x1
	.uleb128 0x13
	.byte	0
	.byte	0
	.uleb128 0x56
	.uleb128 0x16
	.byte	0
	.uleb128 0x3
	.uleb128 0xe
	.uleb128 0x3a
	.uleb128 0xb
	.uleb128 0x3b
	.uleb128 0xb
	.byte	0
	.byte	0
	.uleb128 0x57
	.uleb128 0x13
	.byte	0
	.uleb128 0x3
	.uleb128 0xe
	.uleb128 0x3c
	.uleb128 0x19
	.byte	0
	.byte	0
	.uleb128 0x58
	.uleb128 0x21
	.byte	0
	.byte	0
	.byte	0
	.uleb128 0x59
	.uleb128 0x34
	.byte	0
	.uleb128 0x47
	.uleb128 0x13
	.uleb128 0x2
	.uleb128 0x18
	.byte	0
	.byte	0
	.uleb128 0x5a
	.uleb128 0x34
	.byte	0
	.uleb128 0x3
	.uleb128 0xe
	.uleb128 0x3a
	.uleb128 0xb
	.uleb128 0x3b
	.uleb128 0xb
	.uleb128 0x49
	.uleb128 0x13
	.uleb128 0x2
	.uleb128 0x18
	.byte	0
	.byte	0
	.uleb128 0x5b
	.uleb128 0x34
	.byte	0
	.uleb128 0x3
	.uleb128 0xe
	.uleb128 0x49
	.uleb128 0x13
	.uleb128 0x3f
	.uleb128 0x19
	.uleb128 0x34
	.uleb128 0x19
	.uleb128 0x3c
	.uleb128 0x19
	.byte	0
	.byte	0
	.uleb128 0x5c
	.uleb128 0x34
	.byte	0
	.uleb128 0x6e
	.uleb128 0xe
	.uleb128 0x47
	.uleb128 0x13
	.uleb128 0x1c
	.uleb128 0xb
	.byte	0
	.byte	0
	.uleb128 0x5d
	.uleb128 0x34
	.byte	0
	.uleb128 0x6e
	.uleb128 0xe
	.uleb128 0x47
	.uleb128 0x13
	.uleb128 0x1c
	.uleb128 0xd
	.byte	0
	.byte	0
	.uleb128 0x5e
	.uleb128 0x34
	.byte	0
	.uleb128 0x6e
	.uleb128 0xe
	.uleb128 0x47
	.uleb128 0x13
	.uleb128 0x1c
	.uleb128 0x6
	.byte	0
	.byte	0
	.uleb128 0x5f
	.uleb128 0x34
	.byte	0
	.uleb128 0x6e
	.uleb128 0xe
	.uleb128 0x47
	.uleb128 0x13
	.uleb128 0x1c
	.uleb128 0x5
	.byte	0
	.byte	0
	.uleb128 0x60
	.uleb128 0x34
	.byte	0
	.uleb128 0x6e
	.uleb128 0xe
	.uleb128 0x47
	.uleb128 0x13
	.uleb128 0x1c
	.uleb128 0x7
	.byte	0
	.byte	0
	.uleb128 0x61
	.uleb128 0x2e
	.byte	0
	.uleb128 0x3
	.uleb128 0xe
	.uleb128 0x34
	.uleb128 0x19
	.uleb128 0x11
	.uleb128 0x1
	.uleb128 0x12
	.uleb128 0x7
	.uleb128 0x40
	.uleb128 0x18
	.uleb128 0x2116
	.uleb128 0x19
	.byte	0
	.byte	0
	.uleb128 0x62
	.uleb128 0x2e
	.byte	0x1
	.uleb128 0x3
	.uleb128 0xe
	.uleb128 0x34
	.uleb128 0x19
	.uleb128 0x11
	.uleb128 0x1
	.uleb128 0x12
	.uleb128 0x7
	.uleb128 0x40
	.uleb128 0x18
	.uleb128 0x2116
	.uleb128 0x19
	.uleb128 0x1
	.uleb128 0x13
	.byte	0
	.byte	0
	.uleb128 0x63
	.uleb128 0x5
	.byte	0
	.uleb128 0x3
	.uleb128 0xe
	.uleb128 0x3a
	.uleb128 0xb
	.uleb128 0x3b
	.uleb128 0xb
	.uleb128 0x49
	.uleb128 0x13
	.uleb128 0x2
	.uleb128 0x18
	.byte	0
	.byte	0
	.uleb128 0x64
	.uleb128 0x2e
	.byte	0x1
	.uleb128 0x3f
	.uleb128 0x19
	.uleb128 0x3
	.uleb128 0xe
	.uleb128 0x3a
	.uleb128 0xb
	.uleb128 0x3b
	.uleb128 0xb
	.uleb128 0x49
	.uleb128 0x13
	.uleb128 0x11
	.uleb128 0x1
	.uleb128 0x12
	.uleb128 0x7
	.uleb128 0x40
	.uleb128 0x18
	.uleb128 0x2116
	.uleb128 0x19
	.uleb128 0x1
	.uleb128 0x13
	.byte	0
	.byte	0
	.uleb128 0x65
	.uleb128 0x2e
	.byte	0x1
	.uleb128 0x3f
	.uleb128 0x19
	.uleb128 0x3
	.uleb128 0xe
	.uleb128 0x3a
	.uleb128 0xb
	.uleb128 0x3b
	.uleb128 0xb
	.uleb128 0x6e
	.uleb128 0xe
	.uleb128 0x49
	.uleb128 0x13
	.uleb128 0x11
	.uleb128 0x1
	.uleb128 0x12
	.uleb128 0x7
	.uleb128 0x40
	.uleb128 0x18
	.uleb128 0x2116
	.uleb128 0x19
	.uleb128 0x1
	.uleb128 0x13
	.byte	0
	.byte	0
	.uleb128 0x66
	.uleb128 0x2e
	.byte	0x1
	.uleb128 0x3
	.uleb128 0xe
	.uleb128 0x3a
	.uleb128 0xb
	.uleb128 0x3b
	.uleb128 0xb
	.uleb128 0x49
	.uleb128 0x13
	.uleb128 0x11
	.uleb128 0x1
	.uleb128 0x12
	.uleb128 0x7
	.uleb128 0x40
	.uleb128 0x18
	.uleb128 0x2116
	.uleb128 0x19
	.uleb128 0x1
	.uleb128 0x13
	.byte	0
	.byte	0
	.uleb128 0x67
	.uleb128 0xb
	.byte	0x1
	.uleb128 0x11
	.uleb128 0x1
	.uleb128 0x12
	.uleb128 0x7
	.uleb128 0x1
	.uleb128 0x13
	.byte	0
	.byte	0
	.uleb128 0x68
	.uleb128 0x34
	.byte	0
	.uleb128 0x3
	.uleb128 0x8
	.uleb128 0x3a
	.uleb128 0xb
	.uleb128 0x3b
	.uleb128 0xb
	.uleb128 0x49
	.uleb128 0x13
	.uleb128 0x2
	.uleb128 0x18
	.byte	0
	.byte	0
	.uleb128 0x69
	.uleb128 0xb
	.byte	0x1
	.uleb128 0x11
	.uleb128 0x1
	.uleb128 0x12
	.uleb128 0x7
	.byte	0
	.byte	0
	.uleb128 0x6a
	.uleb128 0x2e
	.byte	0
	.uleb128 0x3
	.uleb128 0xe
	.uleb128 0x3a
	.uleb128 0xb
	.uleb128 0x3b
	.uleb128 0xb
	.uleb128 0x11
	.uleb128 0x1
	.uleb128 0x12
	.uleb128 0x7
	.uleb128 0x40
	.uleb128 0x18
	.uleb128 0x2117
	.uleb128 0x19
	.byte	0
	.byte	0
	.byte	0
	.section	.debug_aranges,"",@progbits
	.long	0x2c
	.value	0x2
	.long	.Ldebug_info0
	.byte	0x8
	.byte	0
	.value	0
	.value	0
	.quad	.Ltext0
	.quad	.Letext0-.Ltext0
	.quad	0
	.quad	0
	.section	.debug_line,"",@progbits
.Ldebug_line0:
	.section	.debug_str,"MS",@progbits,1
.LASF354:
	.string	"int_p_sep_by_space"
.LASF429:
	.string	"fgetc"
.LASF305:
	.string	"int8_t"
.LASF29:
	.string	"size_t"
.LASF431:
	.string	"fgets"
.LASF263:
	.string	"tm_hour"
.LASF81:
	.string	"__value"
.LASF82:
	.string	"__is_integer<float>"
.LASF166:
	.string	"__numeric_traits_integer<int>"
.LASF416:
	.string	"fpos_t"
.LASF468:
	.string	"_ZN9__gnu_cxx24__numeric_traits_integerIiE5__maxE"
.LASF415:
	.string	"_IO_2_1_stderr_"
.LASF328:
	.string	"uint_fast64_t"
.LASF4:
	.string	"signed char"
.LASF497:
	.string	"additionInstruction"
.LASF461:
	.string	"testNum1"
.LASF462:
	.string	"testNum2"
.LASF463:
	.string	"testNum3"
.LASF210:
	.string	"_IO_save_end"
.LASF399:
	.string	"lldiv"
.LASF259:
	.string	"wcscspn"
.LASF361:
	.string	"localeconv"
.LASF500:
	.string	"osm.cpp"
.LASF43:
	.string	"_M_addref"
.LASF47:
	.string	"_M_get"
.LASF404:
	.string	"strtold"
.LASF405:
	.string	"9_G_fpos_t"
.LASF401:
	.string	"strtoll"
.LASF203:
	.string	"_IO_write_base"
.LASF35:
	.string	"opterr"
.LASF447:
	.string	"tmpnam"
.LASF372:
	.string	"div_t"
.LASF495:
	.string	"before"
.LASF219:
	.string	"_lock"
.LASF379:
	.string	"at_quick_exit"
.LASF338:
	.string	"int_curr_symbol"
.LASF270:
	.string	"tm_gmtoff"
.LASF321:
	.string	"int_fast8_t"
.LASF291:
	.string	"wcschr"
.LASF349:
	.string	"n_cs_precedes"
.LASF377:
	.string	"__compar_fn_t"
.LASF161:
	.string	"_ZSt5wcerr"
.LASF208:
	.string	"_IO_save_base"
.LASF240:
	.string	"mbrtowc"
.LASF381:
	.string	"atoi"
.LASF283:
	.string	"wcsxfrm"
.LASF122:
	.string	"_ZNSt11char_traitsIwE4copyEPwPKwm"
.LASF400:
	.string	"atoll"
.LASF345:
	.string	"int_frac_digits"
.LASF42:
	.string	"_ZNSt15__exception_ptr13exception_ptrC4EPv"
.LASF132:
	.string	"string_literals"
.LASF430:
	.string	"fgetpos"
.LASF406:
	.string	"__pos"
.LASF212:
	.string	"_chain"
.LASF257:
	.string	"wcscoll"
.LASF424:
	.string	"clearerr"
.LASF74:
	.string	"_ZNKSt17integral_constantIbLb1EEcvbEv"
.LASF216:
	.string	"_cur_column"
.LASF327:
	.string	"uint_fast32_t"
.LASF420:
	.string	"sys_nerr"
.LASF343:
	.string	"positive_sign"
.LASF192:
	.string	"__wch"
.LASF100:
	.string	"_ZNSt11char_traitsIcE4moveEPcPKcm"
.LASF6:
	.string	"__uint8_t"
.LASF502:
	.string	"type_info"
.LASF380:
	.string	"atof"
.LASF470:
	.string	"_ZN9__gnu_cxx25__numeric_traits_floatingIdE16__max_exponent10E"
.LASF382:
	.string	"atol"
.LASF422:
	.string	"_sys_nerr"
.LASF487:
	.string	"_Z16osm_syscall_timej"
.LASF293:
	.string	"wcsrchr"
.LASF31:
	.string	"__environ"
.LASF340:
	.string	"mon_decimal_point"
.LASF13:
	.string	"long int"
.LASF177:
	.string	"__numeric_traits_floating<long double>"
.LASF54:
	.string	"_ZNSt15__exception_ptr13exception_ptraSERKS0_"
.LASF269:
	.string	"tm_isdst"
.LASF450:
	.string	"program_invocation_short_name"
.LASF37:
	.string	"nothrow_t"
.LASF179:
	.string	"__numeric_traits_integer<char>"
.LASF252:
	.string	"vwprintf"
.LASF299:
	.string	"wcstoull"
.LASF398:
	.string	"wctomb"
.LASF90:
	.string	"int_type"
.LASF174:
	.string	"__digits10"
.LASF409:
	.string	"_IO_marker"
.LASF480:
	.string	"main"
.LASF355:
	.string	"int_n_cs_precedes"
.LASF136:
	.string	"~Init"
.LASF454:
	.string	"towctrans"
.LASF116:
	.string	"_ZNSt11char_traitsIwE2eqERKwS2_"
.LASF101:
	.string	"copy"
.LASF390:
	.string	"rand"
.LASF92:
	.string	"_ZNSt11char_traitsIcE2ltERKcS2_"
.LASF457:
	.string	"__ioinit"
.LASF458:
	.string	"TRAP"
.LASF64:
	.string	"nullptr_t"
.LASF135:
	.string	"_S_synced_with_stdio"
.LASF171:
	.string	"_Value"
.LASF124:
	.string	"_ZNSt11char_traitsIwE12to_char_typeERKj"
.LASF320:
	.string	"uint_least64_t"
.LASF153:
	.string	"_ZSt4clog"
.LASF268:
	.string	"tm_yday"
.LASF402:
	.string	"strtoull"
.LASF309:
	.string	"uint8_t"
.LASF159:
	.string	"_ZSt5wcout"
.LASF198:
	.string	"_IO_FILE"
.LASF364:
	.string	"__timezone"
.LASF441:
	.string	"remove"
.LASF396:
	.string	"system"
.LASF139:
	.string	"basic_ostream<char, std::char_traits<char> >"
.LASF451:
	.string	"wctype_t"
.LASF53:
	.string	"operator="
.LASF230:
	.string	"fgetwc"
.LASF360:
	.string	"getwchar"
.LASF150:
	.string	"cerr"
.LASF231:
	.string	"fgetws"
.LASF32:
	.string	"environ"
.LASF89:
	.string	"char_type"
.LASF0:
	.string	"unsigned char"
.LASF302:
	.string	"__int128 unsigned"
.LASF350:
	.string	"n_sep_by_space"
.LASF425:
	.string	"fclose"
.LASF295:
	.string	"wmemchr"
.LASF332:
	.string	"char16_t"
.LASF475:
	.string	"_ZN9__gnu_cxx24__numeric_traits_integerIsE5__maxE"
.LASF375:
	.string	"7lldiv_t"
.LASF256:
	.string	"wcscmp"
.LASF490:
	.string	"osm_operation_time"
.LASF111:
	.string	"not_eof"
.LASF245:
	.string	"swprintf"
.LASF362:
	.string	"__tzname"
.LASF292:
	.string	"wcspbrk"
.LASF62:
	.string	"rethrow_exception"
.LASF509:
	.string	"_IO_FILE_plus"
.LASF169:
	.string	"__is_signed"
.LASF72:
	.string	"value"
.LASF128:
	.string	"_ZNSt11char_traitsIwE3eofEv"
.LASF21:
	.string	"char"
.LASF141:
	.string	"basic_ostream<wchar_t, std::char_traits<wchar_t> >"
.LASF385:
	.string	"ldiv"
.LASF67:
	.string	"operator std::integral_constant<bool, false>::value_type"
.LASF196:
	.string	"mbstate_t"
.LASF118:
	.string	"_ZNSt11char_traitsIwE7compareEPKwS2_m"
.LASF456:
	.string	"wctype"
.LASF319:
	.string	"uint_least32_t"
.LASF274:
	.string	"wcsncmp"
.LASF508:
	.string	"_IO_lock_t"
.LASF9:
	.string	"__uint16_t"
.LASF466:
	.string	"_ZNSt17integral_constantIbLb1EE5valueE"
.LASF352:
	.string	"n_sign_posn"
.LASF137:
	.string	"_ZNSt8ios_base4InitD4Ev"
.LASF287:
	.string	"wmemmove"
.LASF25:
	.string	"timeval"
.LASF370:
	.string	"5div_t"
.LASF26:
	.string	"timezone"
.LASF438:
	.string	"getc"
.LASF167:
	.string	"__min"
.LASF262:
	.string	"tm_min"
.LASF143:
	.string	"basic_istream<char, std::char_traits<char> >"
.LASF200:
	.string	"_IO_read_ptr"
.LASF290:
	.string	"wscanf"
.LASF341:
	.string	"mon_thousands_sep"
.LASF247:
	.string	"ungetwc"
.LASF188:
	.string	"fp_offset"
.LASF437:
	.string	"ftell"
.LASF130:
	.string	"ptrdiff_t"
.LASF467:
	.string	"_ZN9__gnu_cxx24__numeric_traits_integerIiE5__minE"
.LASF452:
	.string	"wctrans_t"
.LASF239:
	.string	"mbrlen"
.LASF412:
	.string	"_pos"
.LASF417:
	.string	"stdin"
.LASF491:
	.string	"_Z18osm_operation_timej"
.LASF344:
	.string	"negative_sign"
.LASF421:
	.string	"sys_errlist"
.LASF353:
	.string	"int_p_cs_precedes"
.LASF236:
	.string	"fwprintf"
.LASF115:
	.string	"_ZNSt11char_traitsIwE6assignERwRKw"
.LASF147:
	.string	"cout"
.LASF211:
	.string	"_markers"
.LASF498:
	.string	"emptyFunc"
.LASF471:
	.string	"_ZN9__gnu_cxx25__numeric_traits_floatingIeE16__max_exponent10E"
.LASF93:
	.string	"compare"
.LASF408:
	.string	"_G_fpos_t"
.LASF258:
	.string	"wcscpy"
.LASF140:
	.string	"_CharT"
.LASF250:
	.string	"vswprintf"
.LASF71:
	.string	"integral_constant<bool, true>"
.LASF395:
	.string	"strtoul"
.LASF73:
	.string	"operator std::integral_constant<bool, true>::value_type"
.LASF288:
	.string	"wmemset"
.LASF59:
	.string	"_ZNSt15__exception_ptr13exception_ptr4swapERS0_"
.LASF24:
	.string	"tv_usec"
.LASF157:
	.string	"wostream"
.LASF235:
	.string	"fwide"
.LASF449:
	.string	"program_invocation_name"
.LASF60:
	.string	"__cxa_exception_type"
.LASF220:
	.string	"_offset"
.LASF365:
	.string	"tzname"
.LASF275:
	.string	"wcsncpy"
.LASF227:
	.string	"_unused2"
.LASF244:
	.string	"putwchar"
.LASF469:
	.string	"_ZN9__gnu_cxx25__numeric_traits_floatingIfE16__max_exponent10E"
.LASF55:
	.string	"_ZNSt15__exception_ptr13exception_ptraSEOS0_"
.LASF285:
	.string	"wmemcmp"
.LASF163:
	.string	"_ZSt5wclog"
.LASF102:
	.string	"_ZNSt11char_traitsIcE4copyEPcPKcm"
.LASF97:
	.string	"find"
.LASF14:
	.string	"__uint64_t"
.LASF384:
	.string	"getenv"
.LASF479:
	.string	"__priority"
.LASF318:
	.string	"uint_least16_t"
.LASF413:
	.string	"_IO_2_1_stdin_"
.LASF99:
	.string	"move"
.LASF3:
	.string	"long unsigned int"
.LASF460:
	.string	"ADDITION"
.LASF376:
	.string	"lldiv_t"
.LASF49:
	.string	"_ZNSt15__exception_ptr13exception_ptrC4Ev"
.LASF127:
	.string	"_ZNSt11char_traitsIcE3eofEv"
.LASF44:
	.string	"_M_release"
.LASF85:
	.string	"nothrow"
.LASF214:
	.string	"_flags2"
.LASF315:
	.string	"int_least32_t"
.LASF304:
	.string	"__gnu_debug"
.LASF501:
	.string	"/mnt/c/Users/Eli/Desktop/university/OS/ex1"
.LASF373:
	.string	"6ldiv_t"
.LASF202:
	.string	"_IO_read_base"
.LASF493:
	.string	"realIterations"
.LASF316:
	.string	"int_least64_t"
.LASF151:
	.string	"_ZSt4cerr"
.LASF307:
	.string	"int32_t"
.LASF333:
	.string	"char32_t"
.LASF34:
	.string	"optind"
.LASF120:
	.string	"_ZNSt11char_traitsIwE4findEPKwmRS1_"
.LASF397:
	.string	"wcstombs"
.LASF499:
	.string	"GNU C++14 7.4.0 -mtune=generic -march=x86-64 -g -fstack-protector-strong"
.LASF66:
	.string	"value_type"
.LASF329:
	.string	"uintptr_t"
.LASF83:
	.string	"piecewise_construct_t"
.LASF109:
	.string	"eq_int_type"
.LASF119:
	.string	"_ZNSt11char_traitsIwE6lengthEPKw"
.LASF48:
	.string	"_ZNKSt15__exception_ptr13exception_ptr6_M_getEv"
.LASF182:
	.string	"__float128"
.LASF481:
	.string	"argc"
.LASF134:
	.string	"_S_refcount"
.LASF215:
	.string	"_old_offset"
.LASF465:
	.string	"_ZNSt17integral_constantIbLb0EE5valueE"
.LASF436:
	.string	"fsetpos"
.LASF482:
	.string	"argv"
.LASF356:
	.string	"int_n_sep_by_space"
.LASF142:
	.string	"_Traits"
.LASF248:
	.string	"vfwprintf"
.LASF68:
	.string	"_ZNKSt17integral_constantIbLb0EEcvbEv"
.LASF22:
	.string	"__intptr_t"
.LASF478:
	.string	"__initialize_p"
.LASF27:
	.string	"tz_minuteswest"
.LASF512:
	.string	"timeMeasurementTest"
.LASF11:
	.string	"__uint32_t"
.LASF298:
	.string	"long long int"
.LASF195:
	.string	"__mbstate_t"
.LASF175:
	.string	"__max_exponent10"
.LASF286:
	.string	"wmemcpy"
.LASF265:
	.string	"tm_mon"
.LASF50:
	.string	"_ZNSt15__exception_ptr13exception_ptrC4ERKS0_"
.LASF79:
	.string	"__is_integer<long double>"
.LASF281:
	.string	"wcstol"
.LASF184:
	.string	"double"
.LASF98:
	.string	"_ZNSt11char_traitsIcE4findEPKcmRS1_"
.LASF388:
	.string	"mbtowc"
.LASF205:
	.string	"_IO_write_end"
.LASF474:
	.string	"_ZN9__gnu_cxx24__numeric_traits_integerIsE5__minE"
.LASF152:
	.string	"clog"
.LASF331:
	.string	"uintmax_t"
.LASF86:
	.string	"piecewise_construct"
.LASF284:
	.string	"wctob"
.LASF187:
	.string	"gp_offset"
.LASF472:
	.string	"_ZN9__gnu_cxx24__numeric_traits_integerImE8__digitsE"
.LASF183:
	.string	"float"
.LASF510:
	.string	"_GLOBAL__sub_I__Z18osm_operation_timej"
.LASF507:
	.string	"decltype(nullptr)"
.LASF40:
	.string	"exception_ptr"
.LASF351:
	.string	"p_sign_posn"
.LASF488:
	.string	"osm_function_time"
.LASF149:
	.string	"_ZSt4cout"
.LASF15:
	.string	"__intmax_t"
.LASF206:
	.string	"_IO_buf_base"
.LASF2:
	.string	"unsigned int"
.LASF476:
	.string	"_ZN9__gnu_cxx24__numeric_traits_integerIlE5__minE"
.LASF88:
	.string	"char_traits<char>"
.LASF440:
	.string	"perror"
.LASF30:
	.string	"intptr_t"
.LASF277:
	.string	"wcsspn"
.LASF484:
	.string	"operator bool"
.LASF110:
	.string	"_ZNSt11char_traitsIcE11eq_int_typeERKiS2_"
.LASF221:
	.string	"__pad1"
.LASF222:
	.string	"__pad2"
.LASF223:
	.string	"__pad3"
.LASF224:
	.string	"__pad4"
.LASF225:
	.string	"__pad5"
.LASF445:
	.string	"setvbuf"
.LASF411:
	.string	"_sbuf"
.LASF20:
	.string	"__suseconds_t"
.LASF106:
	.string	"_ZNSt11char_traitsIcE12to_char_typeERKi"
.LASF322:
	.string	"int_fast16_t"
.LASF126:
	.string	"_ZNSt11char_traitsIwE11eq_int_typeERKjS2_"
.LASF368:
	.string	"_Atomic_word"
.LASF189:
	.string	"overflow_arg_area"
.LASF442:
	.string	"rename"
.LASF199:
	.string	"_flags"
.LASF133:
	.string	"Init"
.LASF226:
	.string	"_mode"
.LASF160:
	.string	"wcerr"
.LASF56:
	.string	"~exception_ptr"
.LASF146:
	.string	"ostream"
.LASF335:
	.string	"decimal_point"
.LASF439:
	.string	"getchar"
.LASF84:
	.string	"_ZNSt21piecewise_construct_tC4Ev"
.LASF194:
	.string	"__count"
.LASF164:
	.string	"__gnu_cxx"
.LASF485:
	.string	"osm_syscall_time"
.LASF70:
	.string	"_ZNKSt17integral_constantIbLb0EEclEv"
.LASF392:
	.string	"srand"
.LASF301:
	.string	"bool"
.LASF117:
	.string	"_ZNSt11char_traitsIwE2ltERKwS2_"
.LASF317:
	.string	"uint_least8_t"
.LASF426:
	.string	"feof"
.LASF313:
	.string	"int_least8_t"
.LASF181:
	.string	"__unknown__"
.LASF104:
	.string	"_ZNSt11char_traitsIcE6assignEPcmc"
.LASF229:
	.string	"btowc"
.LASF391:
	.string	"qsort"
.LASF330:
	.string	"intmax_t"
.LASF185:
	.string	"long double"
.LASF243:
	.string	"putwc"
.LASF228:
	.string	"FILE"
.LASF506:
	.string	"__numeric_traits_integer<long int>"
.LASF323:
	.string	"int_fast32_t"
.LASF176:
	.string	"__numeric_traits_floating<double>"
.LASF374:
	.string	"ldiv_t"
.LASF264:
	.string	"tm_mday"
.LASF193:
	.string	"__wchb"
.LASF383:
	.string	"bsearch"
.LASF75:
	.string	"_ZNKSt17integral_constantIbLb1EEclEv"
.LASF367:
	.string	"getdate_err"
.LASF36:
	.string	"optopt"
.LASF5:
	.string	"__int8_t"
.LASF80:
	.string	"__is_integer<double>"
.LASF511:
	.string	"__static_initialization_and_destruction_0"
.LASF95:
	.string	"_ZNSt11char_traitsIcE7compareEPKcS2_m"
.LASF300:
	.string	"long long unsigned int"
.LASF148:
	.string	"_ZSt7nothrow"
.LASF58:
	.string	"swap"
.LASF190:
	.string	"reg_save_area"
.LASF296:
	.string	"wcstold"
.LASF477:
	.string	"_ZN9__gnu_cxx24__numeric_traits_integerIlE5__maxE"
.LASF94:
	.string	"length"
.LASF310:
	.string	"uint16_t"
.LASF297:
	.string	"wcstoll"
.LASF17:
	.string	"__off_t"
.LASF294:
	.string	"wcsstr"
.LASF473:
	.string	"_ZN9__gnu_cxx24__numeric_traits_integerIcE5__maxE"
.LASF51:
	.string	"_ZNSt15__exception_ptr13exception_ptrC4EDn"
.LASF63:
	.string	"_ZSt17rethrow_exceptionNSt15__exception_ptr13exception_ptrE"
.LASF444:
	.string	"setbuf"
.LASF261:
	.string	"tm_sec"
.LASF276:
	.string	"wcsrtombs"
.LASF348:
	.string	"p_sep_by_space"
.LASF267:
	.string	"tm_wday"
.LASF483:
	.string	"iterations"
.LASF91:
	.string	"_ZNSt11char_traitsIcE2eqERKcS2_"
.LASF158:
	.string	"wcout"
.LASF241:
	.string	"mbsinit"
.LASF246:
	.string	"swscanf"
.LASF69:
	.string	"operator()"
.LASF170:
	.string	"__digits"
.LASF278:
	.string	"wcstod"
.LASF279:
	.string	"wcstof"
.LASF65:
	.string	"integral_constant<bool, false>"
.LASF280:
	.string	"wcstok"
.LASF76:
	.string	"__cxx11"
.LASF314:
	.string	"int_least16_t"
.LASF371:
	.string	"quot"
.LASF197:
	.string	"__FILE"
.LASF154:
	.string	"wistream"
.LASF492:
	.string	"testNum"
.LASF7:
	.string	"__int16_t"
.LASF209:
	.string	"_IO_backup_base"
.LASF359:
	.string	"setlocale"
.LASF218:
	.string	"_shortbuf"
.LASF414:
	.string	"_IO_2_1_stdout_"
.LASF237:
	.string	"fwscanf"
.LASF191:
	.string	"wint_t"
.LASF303:
	.string	"__int128"
.LASF410:
	.string	"_next"
.LASF138:
	.string	"ios_base"
.LASF18:
	.string	"__off64_t"
.LASF61:
	.string	"_ZNKSt15__exception_ptr13exception_ptr20__cxa_exception_typeEv"
.LASF432:
	.string	"fopen"
.LASF455:
	.string	"wctrans"
.LASF336:
	.string	"thousands_sep"
.LASF503:
	.string	"_ZNSt8ios_base4InitC4Ev"
.LASF77:
	.string	"__swappable_details"
.LASF386:
	.string	"mblen"
.LASF443:
	.string	"rewind"
.LASF207:
	.string	"_IO_buf_end"
.LASF41:
	.string	"_ZNSt9nothrow_tC4Ev"
.LASF272:
	.string	"wcslen"
.LASF129:
	.string	"_ZNSt11char_traitsIwE7not_eofERKj"
.LASF393:
	.string	"strtod"
.LASF107:
	.string	"to_int_type"
.LASF403:
	.string	"strtof"
.LASF325:
	.string	"uint_fast8_t"
.LASF105:
	.string	"to_char_type"
.LASF394:
	.string	"strtol"
.LASF87:
	.string	"__debug"
.LASF346:
	.string	"frac_digits"
.LASF427:
	.string	"ferror"
.LASF496:
	.string	"after"
.LASF339:
	.string	"currency_symbol"
.LASF419:
	.string	"stderr"
.LASF8:
	.string	"short int"
.LASF39:
	.string	"_M_exception_object"
.LASF96:
	.string	"_ZNSt11char_traitsIcE6lengthEPKc"
.LASF312:
	.string	"uint64_t"
.LASF123:
	.string	"_ZNSt11char_traitsIwE6assignEPwmw"
.LASF260:
	.string	"wcsftime"
.LASF121:
	.string	"_ZNSt11char_traitsIwE4moveEPwPKwm"
.LASF489:
	.string	"_Z17osm_function_timej"
.LASF407:
	.string	"__state"
.LASF459:
	.string	"FUNCTION"
.LASF435:
	.string	"fseek"
.LASF306:
	.string	"int16_t"
.LASF378:
	.string	"atexit"
.LASF486:
	.string	"_ZNKSt15__exception_ptr13exception_ptrcvbEv"
.LASF156:
	.string	"_ZSt4wcin"
.LASF217:
	.string	"_vtable_offset"
.LASF342:
	.string	"mon_grouping"
.LASF423:
	.string	"_sys_errlist"
.LASF16:
	.string	"__uintmax_t"
.LASF112:
	.string	"_ZNSt11char_traitsIcE6assignERcRKc"
.LASF504:
	.string	"_ZSt3cin"
.LASF255:
	.string	"wcscat"
.LASF446:
	.string	"tmpfile"
.LASF369:
	.string	"11__mbstate_t"
.LASF357:
	.string	"int_p_sign_posn"
.LASF78:
	.string	"__swappable_with_details"
.LASF363:
	.string	"__daylight"
.LASF271:
	.string	"tm_zone"
.LASF12:
	.string	"__int64_t"
.LASF448:
	.string	"ungetc"
.LASF253:
	.string	"vwscanf"
.LASF254:
	.string	"wcrtomb"
.LASF334:
	.string	"lconv"
.LASF168:
	.string	"__max"
.LASF201:
	.string	"_IO_read_end"
.LASF387:
	.string	"mbstowcs"
.LASF273:
	.string	"wcsncat"
.LASF180:
	.string	"__numeric_traits_integer<short int>"
.LASF114:
	.string	"char_traits<wchar_t>"
.LASF464:
	.string	"__dso_handle"
.LASF311:
	.string	"uint32_t"
.LASF358:
	.string	"int_n_sign_posn"
.LASF213:
	.string	"_fileno"
.LASF28:
	.string	"tz_dsttime"
.LASF326:
	.string	"uint_fast16_t"
.LASF234:
	.string	"fputws"
.LASF251:
	.string	"vswscanf"
.LASF242:
	.string	"mbsrtowcs"
.LASF172:
	.string	"__numeric_traits_floating<float>"
.LASF46:
	.string	"_ZNSt15__exception_ptr13exception_ptr10_M_releaseEv"
.LASF33:
	.string	"optarg"
.LASF162:
	.string	"wclog"
.LASF131:
	.string	"literals"
.LASF57:
	.string	"_ZNSt15__exception_ptr13exception_ptrD4Ev"
.LASF173:
	.string	"__max_digits10"
.LASF145:
	.string	"istream"
.LASF233:
	.string	"fputwc"
.LASF347:
	.string	"p_cs_precedes"
.LASF178:
	.string	"__numeric_traits_integer<long unsigned int>"
.LASF266:
	.string	"tm_year"
.LASF52:
	.string	"_ZNSt15__exception_ptr13exception_ptrC4EOS0_"
.LASF1:
	.string	"short unsigned int"
.LASF418:
	.string	"stdout"
.LASF433:
	.string	"fread"
.LASF324:
	.string	"int_fast64_t"
.LASF165:
	.string	"__ops"
.LASF249:
	.string	"vfwscanf"
.LASF204:
	.string	"_IO_write_ptr"
.LASF155:
	.string	"wcin"
.LASF125:
	.string	"_ZNSt11char_traitsIwE11to_int_typeERKw"
.LASF38:
	.string	"__exception_ptr"
.LASF10:
	.string	"__int32_t"
.LASF308:
	.string	"int64_t"
.LASF144:
	.string	"basic_istream<wchar_t, std::char_traits<wchar_t> >"
.LASF366:
	.string	"daylight"
.LASF45:
	.string	"_ZNSt15__exception_ptr13exception_ptr9_M_addrefEv"
.LASF238:
	.string	"getwc"
.LASF453:
	.string	"iswctype"
.LASF19:
	.string	"__time_t"
.LASF103:
	.string	"assign"
.LASF337:
	.string	"grouping"
.LASF289:
	.string	"wprintf"
.LASF113:
	.string	"_ZNSt11char_traitsIcE7not_eofERKi"
.LASF494:
	.string	"remainder"
.LASF428:
	.string	"fflush"
.LASF23:
	.string	"tv_sec"
.LASF389:
	.string	"quick_exit"
.LASF232:
	.string	"wchar_t"
.LASF186:
	.string	"typedef __va_list_tag __va_list_tag"
.LASF505:
	.string	"_ZN9__gnu_cxx3divExx"
.LASF282:
	.string	"wcstoul"
.LASF108:
	.string	"_ZNSt11char_traitsIcE11to_int_typeERKc"
.LASF434:
	.string	"freopen"
	.hidden	__dso_handle
	.ident	"GCC: (Ubuntu 7.4.0-1ubuntu1~18.04.1) 7.4.0"
	.section	.note.GNU-stack,"",@progbits
